
firmware.elf:     file format elf32-littlearm


Disassembly of section .text:

080000c0 <__do_global_dtors_aux>:
 80000c0:	b510      	push	{r4, lr}
 80000c2:	4c06      	ldr	r4, [pc, #24]	; (80000dc <__do_global_dtors_aux+0x1c>)
 80000c4:	7823      	ldrb	r3, [r4, #0]
 80000c6:	2b00      	cmp	r3, #0
 80000c8:	d107      	bne.n	80000da <__do_global_dtors_aux+0x1a>
 80000ca:	4b05      	ldr	r3, [pc, #20]	; (80000e0 <__do_global_dtors_aux+0x20>)
 80000cc:	2b00      	cmp	r3, #0
 80000ce:	d002      	beq.n	80000d6 <__do_global_dtors_aux+0x16>
 80000d0:	4804      	ldr	r0, [pc, #16]	; (80000e4 <__do_global_dtors_aux+0x24>)
 80000d2:	e000      	b.n	80000d6 <__do_global_dtors_aux+0x16>
 80000d4:	bf00      	nop
 80000d6:	2301      	movs	r3, #1
 80000d8:	7023      	strb	r3, [r4, #0]
 80000da:	bd10      	pop	{r4, pc}
 80000dc:	20000574 	.word	0x20000574
 80000e0:	00000000 	.word	0x00000000
 80000e4:	08007ecc 	.word	0x08007ecc

080000e8 <frame_dummy>:
 80000e8:	4b04      	ldr	r3, [pc, #16]	; (80000fc <frame_dummy+0x14>)
 80000ea:	b510      	push	{r4, lr}
 80000ec:	2b00      	cmp	r3, #0
 80000ee:	d003      	beq.n	80000f8 <frame_dummy+0x10>
 80000f0:	4903      	ldr	r1, [pc, #12]	; (8000100 <frame_dummy+0x18>)
 80000f2:	4804      	ldr	r0, [pc, #16]	; (8000104 <frame_dummy+0x1c>)
 80000f4:	e000      	b.n	80000f8 <frame_dummy+0x10>
 80000f6:	bf00      	nop
 80000f8:	bd10      	pop	{r4, pc}
 80000fa:	46c0      	nop			; (mov r8, r8)
 80000fc:	00000000 	.word	0x00000000
 8000100:	20000578 	.word	0x20000578
 8000104:	08007ecc 	.word	0x08007ecc

08000108 <__udivsi3>:
 8000108:	2200      	movs	r2, #0
 800010a:	0843      	lsrs	r3, r0, #1
 800010c:	428b      	cmp	r3, r1
 800010e:	d374      	bcc.n	80001fa <__udivsi3+0xf2>
 8000110:	0903      	lsrs	r3, r0, #4
 8000112:	428b      	cmp	r3, r1
 8000114:	d35f      	bcc.n	80001d6 <__udivsi3+0xce>
 8000116:	0a03      	lsrs	r3, r0, #8
 8000118:	428b      	cmp	r3, r1
 800011a:	d344      	bcc.n	80001a6 <__udivsi3+0x9e>
 800011c:	0b03      	lsrs	r3, r0, #12
 800011e:	428b      	cmp	r3, r1
 8000120:	d328      	bcc.n	8000174 <__udivsi3+0x6c>
 8000122:	0c03      	lsrs	r3, r0, #16
 8000124:	428b      	cmp	r3, r1
 8000126:	d30d      	bcc.n	8000144 <__udivsi3+0x3c>
 8000128:	22ff      	movs	r2, #255	; 0xff
 800012a:	0209      	lsls	r1, r1, #8
 800012c:	ba12      	rev	r2, r2
 800012e:	0c03      	lsrs	r3, r0, #16
 8000130:	428b      	cmp	r3, r1
 8000132:	d302      	bcc.n	800013a <__udivsi3+0x32>
 8000134:	1212      	asrs	r2, r2, #8
 8000136:	0209      	lsls	r1, r1, #8
 8000138:	d065      	beq.n	8000206 <__udivsi3+0xfe>
 800013a:	0b03      	lsrs	r3, r0, #12
 800013c:	428b      	cmp	r3, r1
 800013e:	d319      	bcc.n	8000174 <__udivsi3+0x6c>
 8000140:	e000      	b.n	8000144 <__udivsi3+0x3c>
 8000142:	0a09      	lsrs	r1, r1, #8
 8000144:	0bc3      	lsrs	r3, r0, #15
 8000146:	428b      	cmp	r3, r1
 8000148:	d301      	bcc.n	800014e <__udivsi3+0x46>
 800014a:	03cb      	lsls	r3, r1, #15
 800014c:	1ac0      	subs	r0, r0, r3
 800014e:	4152      	adcs	r2, r2
 8000150:	0b83      	lsrs	r3, r0, #14
 8000152:	428b      	cmp	r3, r1
 8000154:	d301      	bcc.n	800015a <__udivsi3+0x52>
 8000156:	038b      	lsls	r3, r1, #14
 8000158:	1ac0      	subs	r0, r0, r3
 800015a:	4152      	adcs	r2, r2
 800015c:	0b43      	lsrs	r3, r0, #13
 800015e:	428b      	cmp	r3, r1
 8000160:	d301      	bcc.n	8000166 <__udivsi3+0x5e>
 8000162:	034b      	lsls	r3, r1, #13
 8000164:	1ac0      	subs	r0, r0, r3
 8000166:	4152      	adcs	r2, r2
 8000168:	0b03      	lsrs	r3, r0, #12
 800016a:	428b      	cmp	r3, r1
 800016c:	d301      	bcc.n	8000172 <__udivsi3+0x6a>
 800016e:	030b      	lsls	r3, r1, #12
 8000170:	1ac0      	subs	r0, r0, r3
 8000172:	4152      	adcs	r2, r2
 8000174:	0ac3      	lsrs	r3, r0, #11
 8000176:	428b      	cmp	r3, r1
 8000178:	d301      	bcc.n	800017e <__udivsi3+0x76>
 800017a:	02cb      	lsls	r3, r1, #11
 800017c:	1ac0      	subs	r0, r0, r3
 800017e:	4152      	adcs	r2, r2
 8000180:	0a83      	lsrs	r3, r0, #10
 8000182:	428b      	cmp	r3, r1
 8000184:	d301      	bcc.n	800018a <__udivsi3+0x82>
 8000186:	028b      	lsls	r3, r1, #10
 8000188:	1ac0      	subs	r0, r0, r3
 800018a:	4152      	adcs	r2, r2
 800018c:	0a43      	lsrs	r3, r0, #9
 800018e:	428b      	cmp	r3, r1
 8000190:	d301      	bcc.n	8000196 <__udivsi3+0x8e>
 8000192:	024b      	lsls	r3, r1, #9
 8000194:	1ac0      	subs	r0, r0, r3
 8000196:	4152      	adcs	r2, r2
 8000198:	0a03      	lsrs	r3, r0, #8
 800019a:	428b      	cmp	r3, r1
 800019c:	d301      	bcc.n	80001a2 <__udivsi3+0x9a>
 800019e:	020b      	lsls	r3, r1, #8
 80001a0:	1ac0      	subs	r0, r0, r3
 80001a2:	4152      	adcs	r2, r2
 80001a4:	d2cd      	bcs.n	8000142 <__udivsi3+0x3a>
 80001a6:	09c3      	lsrs	r3, r0, #7
 80001a8:	428b      	cmp	r3, r1
 80001aa:	d301      	bcc.n	80001b0 <__udivsi3+0xa8>
 80001ac:	01cb      	lsls	r3, r1, #7
 80001ae:	1ac0      	subs	r0, r0, r3
 80001b0:	4152      	adcs	r2, r2
 80001b2:	0983      	lsrs	r3, r0, #6
 80001b4:	428b      	cmp	r3, r1
 80001b6:	d301      	bcc.n	80001bc <__udivsi3+0xb4>
 80001b8:	018b      	lsls	r3, r1, #6
 80001ba:	1ac0      	subs	r0, r0, r3
 80001bc:	4152      	adcs	r2, r2
 80001be:	0943      	lsrs	r3, r0, #5
 80001c0:	428b      	cmp	r3, r1
 80001c2:	d301      	bcc.n	80001c8 <__udivsi3+0xc0>
 80001c4:	014b      	lsls	r3, r1, #5
 80001c6:	1ac0      	subs	r0, r0, r3
 80001c8:	4152      	adcs	r2, r2
 80001ca:	0903      	lsrs	r3, r0, #4
 80001cc:	428b      	cmp	r3, r1
 80001ce:	d301      	bcc.n	80001d4 <__udivsi3+0xcc>
 80001d0:	010b      	lsls	r3, r1, #4
 80001d2:	1ac0      	subs	r0, r0, r3
 80001d4:	4152      	adcs	r2, r2
 80001d6:	08c3      	lsrs	r3, r0, #3
 80001d8:	428b      	cmp	r3, r1
 80001da:	d301      	bcc.n	80001e0 <__udivsi3+0xd8>
 80001dc:	00cb      	lsls	r3, r1, #3
 80001de:	1ac0      	subs	r0, r0, r3
 80001e0:	4152      	adcs	r2, r2
 80001e2:	0883      	lsrs	r3, r0, #2
 80001e4:	428b      	cmp	r3, r1
 80001e6:	d301      	bcc.n	80001ec <__udivsi3+0xe4>
 80001e8:	008b      	lsls	r3, r1, #2
 80001ea:	1ac0      	subs	r0, r0, r3
 80001ec:	4152      	adcs	r2, r2
 80001ee:	0843      	lsrs	r3, r0, #1
 80001f0:	428b      	cmp	r3, r1
 80001f2:	d301      	bcc.n	80001f8 <__udivsi3+0xf0>
 80001f4:	004b      	lsls	r3, r1, #1
 80001f6:	1ac0      	subs	r0, r0, r3
 80001f8:	4152      	adcs	r2, r2
 80001fa:	1a41      	subs	r1, r0, r1
 80001fc:	d200      	bcs.n	8000200 <__udivsi3+0xf8>
 80001fe:	4601      	mov	r1, r0
 8000200:	4152      	adcs	r2, r2
 8000202:	4610      	mov	r0, r2
 8000204:	4770      	bx	lr
 8000206:	e7ff      	b.n	8000208 <__udivsi3+0x100>
 8000208:	b501      	push	{r0, lr}
 800020a:	2000      	movs	r0, #0
 800020c:	f000 f806 	bl	800021c <__aeabi_idiv0>
 8000210:	bd02      	pop	{r1, pc}
 8000212:	46c0      	nop			; (mov r8, r8)

08000214 <__aeabi_uidivmod>:
 8000214:	2900      	cmp	r1, #0
 8000216:	d0f7      	beq.n	8000208 <__udivsi3+0x100>
 8000218:	e776      	b.n	8000108 <__udivsi3>
 800021a:	4770      	bx	lr

0800021c <__aeabi_idiv0>:
 800021c:	4770      	bx	lr
 800021e:	46c0      	nop			; (mov r8, r8)

08000220 <__aeabi_cdrcmple>:
 8000220:	4684      	mov	ip, r0
 8000222:	0010      	movs	r0, r2
 8000224:	4662      	mov	r2, ip
 8000226:	468c      	mov	ip, r1
 8000228:	0019      	movs	r1, r3
 800022a:	4663      	mov	r3, ip
 800022c:	e000      	b.n	8000230 <__aeabi_cdcmpeq>
 800022e:	46c0      	nop			; (mov r8, r8)

08000230 <__aeabi_cdcmpeq>:
 8000230:	b51f      	push	{r0, r1, r2, r3, r4, lr}
 8000232:	f001 f88d 	bl	8001350 <__ledf2>
 8000236:	2800      	cmp	r0, #0
 8000238:	d401      	bmi.n	800023e <__aeabi_cdcmpeq+0xe>
 800023a:	2100      	movs	r1, #0
 800023c:	42c8      	cmn	r0, r1
 800023e:	bd1f      	pop	{r0, r1, r2, r3, r4, pc}

08000240 <__aeabi_dcmpeq>:
 8000240:	b510      	push	{r4, lr}
 8000242:	f000 ffdd 	bl	8001200 <__eqdf2>
 8000246:	4240      	negs	r0, r0
 8000248:	3001      	adds	r0, #1
 800024a:	bd10      	pop	{r4, pc}

0800024c <__aeabi_dcmplt>:
 800024c:	b510      	push	{r4, lr}
 800024e:	f001 f87f 	bl	8001350 <__ledf2>
 8000252:	2800      	cmp	r0, #0
 8000254:	db01      	blt.n	800025a <__aeabi_dcmplt+0xe>
 8000256:	2000      	movs	r0, #0
 8000258:	bd10      	pop	{r4, pc}
 800025a:	2001      	movs	r0, #1
 800025c:	bd10      	pop	{r4, pc}
 800025e:	46c0      	nop			; (mov r8, r8)

08000260 <__aeabi_dcmple>:
 8000260:	b510      	push	{r4, lr}
 8000262:	f001 f875 	bl	8001350 <__ledf2>
 8000266:	2800      	cmp	r0, #0
 8000268:	dd01      	ble.n	800026e <__aeabi_dcmple+0xe>
 800026a:	2000      	movs	r0, #0
 800026c:	bd10      	pop	{r4, pc}
 800026e:	2001      	movs	r0, #1
 8000270:	bd10      	pop	{r4, pc}
 8000272:	46c0      	nop			; (mov r8, r8)

08000274 <__aeabi_dcmpgt>:
 8000274:	b510      	push	{r4, lr}
 8000276:	f001 f805 	bl	8001284 <__gedf2>
 800027a:	2800      	cmp	r0, #0
 800027c:	dc01      	bgt.n	8000282 <__aeabi_dcmpgt+0xe>
 800027e:	2000      	movs	r0, #0
 8000280:	bd10      	pop	{r4, pc}
 8000282:	2001      	movs	r0, #1
 8000284:	bd10      	pop	{r4, pc}
 8000286:	46c0      	nop			; (mov r8, r8)

08000288 <__aeabi_dcmpge>:
 8000288:	b510      	push	{r4, lr}
 800028a:	f000 fffb 	bl	8001284 <__gedf2>
 800028e:	2800      	cmp	r0, #0
 8000290:	da01      	bge.n	8000296 <__aeabi_dcmpge+0xe>
 8000292:	2000      	movs	r0, #0
 8000294:	bd10      	pop	{r4, pc}
 8000296:	2001      	movs	r0, #1
 8000298:	bd10      	pop	{r4, pc}
 800029a:	46c0      	nop			; (mov r8, r8)

0800029c <__aeabi_ldivmod>:
 800029c:	2b00      	cmp	r3, #0
 800029e:	d115      	bne.n	80002cc <__aeabi_ldivmod+0x30>
 80002a0:	2a00      	cmp	r2, #0
 80002a2:	d113      	bne.n	80002cc <__aeabi_ldivmod+0x30>
 80002a4:	2900      	cmp	r1, #0
 80002a6:	db06      	blt.n	80002b6 <__aeabi_ldivmod+0x1a>
 80002a8:	dc01      	bgt.n	80002ae <__aeabi_ldivmod+0x12>
 80002aa:	2800      	cmp	r0, #0
 80002ac:	d006      	beq.n	80002bc <__aeabi_ldivmod+0x20>
 80002ae:	2000      	movs	r0, #0
 80002b0:	43c0      	mvns	r0, r0
 80002b2:	0841      	lsrs	r1, r0, #1
 80002b4:	e002      	b.n	80002bc <__aeabi_ldivmod+0x20>
 80002b6:	2180      	movs	r1, #128	; 0x80
 80002b8:	0609      	lsls	r1, r1, #24
 80002ba:	2000      	movs	r0, #0
 80002bc:	b407      	push	{r0, r1, r2}
 80002be:	4802      	ldr	r0, [pc, #8]	; (80002c8 <__aeabi_ldivmod+0x2c>)
 80002c0:	a101      	add	r1, pc, #4	; (adr r1, 80002c8 <__aeabi_ldivmod+0x2c>)
 80002c2:	1840      	adds	r0, r0, r1
 80002c4:	9002      	str	r0, [sp, #8]
 80002c6:	bd03      	pop	{r0, r1, pc}
 80002c8:	ffffff55 	.word	0xffffff55
 80002cc:	b403      	push	{r0, r1}
 80002ce:	4668      	mov	r0, sp
 80002d0:	b501      	push	{r0, lr}
 80002d2:	9802      	ldr	r0, [sp, #8]
 80002d4:	f000 f944 	bl	8000560 <__gnu_ldivmod_helper>
 80002d8:	9b01      	ldr	r3, [sp, #4]
 80002da:	469e      	mov	lr, r3
 80002dc:	b002      	add	sp, #8
 80002de:	bc0c      	pop	{r2, r3}
 80002e0:	4770      	bx	lr
 80002e2:	46c0      	nop			; (mov r8, r8)

080002e4 <__aeabi_uldivmod>:
 80002e4:	2b00      	cmp	r3, #0
 80002e6:	d111      	bne.n	800030c <__aeabi_uldivmod+0x28>
 80002e8:	2a00      	cmp	r2, #0
 80002ea:	d10f      	bne.n	800030c <__aeabi_uldivmod+0x28>
 80002ec:	2900      	cmp	r1, #0
 80002ee:	d100      	bne.n	80002f2 <__aeabi_uldivmod+0xe>
 80002f0:	2800      	cmp	r0, #0
 80002f2:	d002      	beq.n	80002fa <__aeabi_uldivmod+0x16>
 80002f4:	2100      	movs	r1, #0
 80002f6:	43c9      	mvns	r1, r1
 80002f8:	0008      	movs	r0, r1
 80002fa:	b407      	push	{r0, r1, r2}
 80002fc:	4802      	ldr	r0, [pc, #8]	; (8000308 <__aeabi_uldivmod+0x24>)
 80002fe:	a102      	add	r1, pc, #8	; (adr r1, 8000308 <__aeabi_uldivmod+0x24>)
 8000300:	1840      	adds	r0, r0, r1
 8000302:	9002      	str	r0, [sp, #8]
 8000304:	bd03      	pop	{r0, r1, pc}
 8000306:	46c0      	nop			; (mov r8, r8)
 8000308:	ffffff15 	.word	0xffffff15
 800030c:	b403      	push	{r0, r1}
 800030e:	4668      	mov	r0, sp
 8000310:	b501      	push	{r0, lr}
 8000312:	9802      	ldr	r0, [sp, #8]
 8000314:	f000 f858 	bl	80003c8 <__udivmoddi4>
 8000318:	9b01      	ldr	r3, [sp, #4]
 800031a:	469e      	mov	lr, r3
 800031c:	b002      	add	sp, #8
 800031e:	bc0c      	pop	{r2, r3}
 8000320:	4770      	bx	lr
 8000322:	46c0      	nop			; (mov r8, r8)

08000324 <__aeabi_d2lz>:
 8000324:	b570      	push	{r4, r5, r6, lr}
 8000326:	0005      	movs	r5, r0
 8000328:	000c      	movs	r4, r1
 800032a:	2200      	movs	r2, #0
 800032c:	2300      	movs	r3, #0
 800032e:	0028      	movs	r0, r5
 8000330:	0021      	movs	r1, r4
 8000332:	f7ff ff8b 	bl	800024c <__aeabi_dcmplt>
 8000336:	2800      	cmp	r0, #0
 8000338:	d108      	bne.n	800034c <__aeabi_d2lz+0x28>
 800033a:	0028      	movs	r0, r5
 800033c:	0021      	movs	r1, r4
 800033e:	f000 f80f 	bl	8000360 <__aeabi_d2ulz>
 8000342:	0002      	movs	r2, r0
 8000344:	000b      	movs	r3, r1
 8000346:	0010      	movs	r0, r2
 8000348:	0019      	movs	r1, r3
 800034a:	bd70      	pop	{r4, r5, r6, pc}
 800034c:	2380      	movs	r3, #128	; 0x80
 800034e:	061b      	lsls	r3, r3, #24
 8000350:	18e1      	adds	r1, r4, r3
 8000352:	0028      	movs	r0, r5
 8000354:	f000 f804 	bl	8000360 <__aeabi_d2ulz>
 8000358:	2300      	movs	r3, #0
 800035a:	4242      	negs	r2, r0
 800035c:	418b      	sbcs	r3, r1
 800035e:	e7f2      	b.n	8000346 <__aeabi_d2lz+0x22>

08000360 <__aeabi_d2ulz>:
 8000360:	b570      	push	{r4, r5, r6, lr}
 8000362:	2200      	movs	r2, #0
 8000364:	4b0b      	ldr	r3, [pc, #44]	; (8000394 <__aeabi_d2ulz+0x34>)
 8000366:	000d      	movs	r5, r1
 8000368:	0004      	movs	r4, r0
 800036a:	f001 f855 	bl	8001418 <__aeabi_dmul>
 800036e:	f001 ff35 	bl	80021dc <__aeabi_d2uiz>
 8000372:	0006      	movs	r6, r0
 8000374:	f001 feb4 	bl	80020e0 <__aeabi_ui2d>
 8000378:	2200      	movs	r2, #0
 800037a:	4b07      	ldr	r3, [pc, #28]	; (8000398 <__aeabi_d2ulz+0x38>)
 800037c:	f001 f84c 	bl	8001418 <__aeabi_dmul>
 8000380:	0002      	movs	r2, r0
 8000382:	000b      	movs	r3, r1
 8000384:	0020      	movs	r0, r4
 8000386:	0029      	movs	r1, r5
 8000388:	f001 fab2 	bl	80018f0 <__aeabi_dsub>
 800038c:	f001 ff26 	bl	80021dc <__aeabi_d2uiz>
 8000390:	0031      	movs	r1, r6
 8000392:	bd70      	pop	{r4, r5, r6, pc}
 8000394:	3df00000 	.word	0x3df00000
 8000398:	41f00000 	.word	0x41f00000

0800039c <__aeabi_l2d>:
 800039c:	b570      	push	{r4, r5, r6, lr}
 800039e:	0006      	movs	r6, r0
 80003a0:	0008      	movs	r0, r1
 80003a2:	f001 fe6d 	bl	8002080 <__aeabi_i2d>
 80003a6:	2200      	movs	r2, #0
 80003a8:	4b06      	ldr	r3, [pc, #24]	; (80003c4 <__aeabi_l2d+0x28>)
 80003aa:	f001 f835 	bl	8001418 <__aeabi_dmul>
 80003ae:	000d      	movs	r5, r1
 80003b0:	0004      	movs	r4, r0
 80003b2:	0030      	movs	r0, r6
 80003b4:	f001 fe94 	bl	80020e0 <__aeabi_ui2d>
 80003b8:	002b      	movs	r3, r5
 80003ba:	0022      	movs	r2, r4
 80003bc:	f000 f8ee 	bl	800059c <__aeabi_dadd>
 80003c0:	bd70      	pop	{r4, r5, r6, pc}
 80003c2:	46c0      	nop			; (mov r8, r8)
 80003c4:	41f00000 	.word	0x41f00000

080003c8 <__udivmoddi4>:
 80003c8:	b5f0      	push	{r4, r5, r6, r7, lr}
 80003ca:	4657      	mov	r7, sl
 80003cc:	464e      	mov	r6, r9
 80003ce:	4645      	mov	r5, r8
 80003d0:	46de      	mov	lr, fp
 80003d2:	b5e0      	push	{r5, r6, r7, lr}
 80003d4:	0004      	movs	r4, r0
 80003d6:	000d      	movs	r5, r1
 80003d8:	4692      	mov	sl, r2
 80003da:	4699      	mov	r9, r3
 80003dc:	b083      	sub	sp, #12
 80003de:	428b      	cmp	r3, r1
 80003e0:	d830      	bhi.n	8000444 <__udivmoddi4+0x7c>
 80003e2:	d02d      	beq.n	8000440 <__udivmoddi4+0x78>
 80003e4:	4649      	mov	r1, r9
 80003e6:	4650      	mov	r0, sl
 80003e8:	f001 febe 	bl	8002168 <__clzdi2>
 80003ec:	0029      	movs	r1, r5
 80003ee:	0006      	movs	r6, r0
 80003f0:	0020      	movs	r0, r4
 80003f2:	f001 feb9 	bl	8002168 <__clzdi2>
 80003f6:	1a33      	subs	r3, r6, r0
 80003f8:	4698      	mov	r8, r3
 80003fa:	3b20      	subs	r3, #32
 80003fc:	469b      	mov	fp, r3
 80003fe:	d433      	bmi.n	8000468 <__udivmoddi4+0xa0>
 8000400:	465a      	mov	r2, fp
 8000402:	4653      	mov	r3, sl
 8000404:	4093      	lsls	r3, r2
 8000406:	4642      	mov	r2, r8
 8000408:	001f      	movs	r7, r3
 800040a:	4653      	mov	r3, sl
 800040c:	4093      	lsls	r3, r2
 800040e:	001e      	movs	r6, r3
 8000410:	42af      	cmp	r7, r5
 8000412:	d83a      	bhi.n	800048a <__udivmoddi4+0xc2>
 8000414:	42af      	cmp	r7, r5
 8000416:	d100      	bne.n	800041a <__udivmoddi4+0x52>
 8000418:	e078      	b.n	800050c <__udivmoddi4+0x144>
 800041a:	465b      	mov	r3, fp
 800041c:	1ba4      	subs	r4, r4, r6
 800041e:	41bd      	sbcs	r5, r7
 8000420:	2b00      	cmp	r3, #0
 8000422:	da00      	bge.n	8000426 <__udivmoddi4+0x5e>
 8000424:	e075      	b.n	8000512 <__udivmoddi4+0x14a>
 8000426:	2200      	movs	r2, #0
 8000428:	2300      	movs	r3, #0
 800042a:	9200      	str	r2, [sp, #0]
 800042c:	9301      	str	r3, [sp, #4]
 800042e:	2301      	movs	r3, #1
 8000430:	465a      	mov	r2, fp
 8000432:	4093      	lsls	r3, r2
 8000434:	9301      	str	r3, [sp, #4]
 8000436:	2301      	movs	r3, #1
 8000438:	4642      	mov	r2, r8
 800043a:	4093      	lsls	r3, r2
 800043c:	9300      	str	r3, [sp, #0]
 800043e:	e028      	b.n	8000492 <__udivmoddi4+0xca>
 8000440:	4282      	cmp	r2, r0
 8000442:	d9cf      	bls.n	80003e4 <__udivmoddi4+0x1c>
 8000444:	2200      	movs	r2, #0
 8000446:	2300      	movs	r3, #0
 8000448:	9200      	str	r2, [sp, #0]
 800044a:	9301      	str	r3, [sp, #4]
 800044c:	9b0c      	ldr	r3, [sp, #48]	; 0x30
 800044e:	2b00      	cmp	r3, #0
 8000450:	d001      	beq.n	8000456 <__udivmoddi4+0x8e>
 8000452:	601c      	str	r4, [r3, #0]
 8000454:	605d      	str	r5, [r3, #4]
 8000456:	9800      	ldr	r0, [sp, #0]
 8000458:	9901      	ldr	r1, [sp, #4]
 800045a:	b003      	add	sp, #12
 800045c:	bcf0      	pop	{r4, r5, r6, r7}
 800045e:	46bb      	mov	fp, r7
 8000460:	46b2      	mov	sl, r6
 8000462:	46a9      	mov	r9, r5
 8000464:	46a0      	mov	r8, r4
 8000466:	bdf0      	pop	{r4, r5, r6, r7, pc}
 8000468:	4642      	mov	r2, r8
 800046a:	2320      	movs	r3, #32
 800046c:	1a9b      	subs	r3, r3, r2
 800046e:	4652      	mov	r2, sl
 8000470:	40da      	lsrs	r2, r3
 8000472:	4641      	mov	r1, r8
 8000474:	0013      	movs	r3, r2
 8000476:	464a      	mov	r2, r9
 8000478:	408a      	lsls	r2, r1
 800047a:	0017      	movs	r7, r2
 800047c:	4642      	mov	r2, r8
 800047e:	431f      	orrs	r7, r3
 8000480:	4653      	mov	r3, sl
 8000482:	4093      	lsls	r3, r2
 8000484:	001e      	movs	r6, r3
 8000486:	42af      	cmp	r7, r5
 8000488:	d9c4      	bls.n	8000414 <__udivmoddi4+0x4c>
 800048a:	2200      	movs	r2, #0
 800048c:	2300      	movs	r3, #0
 800048e:	9200      	str	r2, [sp, #0]
 8000490:	9301      	str	r3, [sp, #4]
 8000492:	4643      	mov	r3, r8
 8000494:	2b00      	cmp	r3, #0
 8000496:	d0d9      	beq.n	800044c <__udivmoddi4+0x84>
 8000498:	07fb      	lsls	r3, r7, #31
 800049a:	0872      	lsrs	r2, r6, #1
 800049c:	431a      	orrs	r2, r3
 800049e:	4646      	mov	r6, r8
 80004a0:	087b      	lsrs	r3, r7, #1
 80004a2:	e00e      	b.n	80004c2 <__udivmoddi4+0xfa>
 80004a4:	42ab      	cmp	r3, r5
 80004a6:	d101      	bne.n	80004ac <__udivmoddi4+0xe4>
 80004a8:	42a2      	cmp	r2, r4
 80004aa:	d80c      	bhi.n	80004c6 <__udivmoddi4+0xfe>
 80004ac:	1aa4      	subs	r4, r4, r2
 80004ae:	419d      	sbcs	r5, r3
 80004b0:	2001      	movs	r0, #1
 80004b2:	1924      	adds	r4, r4, r4
 80004b4:	416d      	adcs	r5, r5
 80004b6:	2100      	movs	r1, #0
 80004b8:	3e01      	subs	r6, #1
 80004ba:	1824      	adds	r4, r4, r0
 80004bc:	414d      	adcs	r5, r1
 80004be:	2e00      	cmp	r6, #0
 80004c0:	d006      	beq.n	80004d0 <__udivmoddi4+0x108>
 80004c2:	42ab      	cmp	r3, r5
 80004c4:	d9ee      	bls.n	80004a4 <__udivmoddi4+0xdc>
 80004c6:	3e01      	subs	r6, #1
 80004c8:	1924      	adds	r4, r4, r4
 80004ca:	416d      	adcs	r5, r5
 80004cc:	2e00      	cmp	r6, #0
 80004ce:	d1f8      	bne.n	80004c2 <__udivmoddi4+0xfa>
 80004d0:	9800      	ldr	r0, [sp, #0]
 80004d2:	9901      	ldr	r1, [sp, #4]
 80004d4:	465b      	mov	r3, fp
 80004d6:	1900      	adds	r0, r0, r4
 80004d8:	4169      	adcs	r1, r5
 80004da:	2b00      	cmp	r3, #0
 80004dc:	db24      	blt.n	8000528 <__udivmoddi4+0x160>
 80004de:	002b      	movs	r3, r5
 80004e0:	465a      	mov	r2, fp
 80004e2:	4644      	mov	r4, r8
 80004e4:	40d3      	lsrs	r3, r2
 80004e6:	002a      	movs	r2, r5
 80004e8:	40e2      	lsrs	r2, r4
 80004ea:	001c      	movs	r4, r3
 80004ec:	465b      	mov	r3, fp
 80004ee:	0015      	movs	r5, r2
 80004f0:	2b00      	cmp	r3, #0
 80004f2:	db2a      	blt.n	800054a <__udivmoddi4+0x182>
 80004f4:	0026      	movs	r6, r4
 80004f6:	409e      	lsls	r6, r3
 80004f8:	0033      	movs	r3, r6
 80004fa:	0026      	movs	r6, r4
 80004fc:	4647      	mov	r7, r8
 80004fe:	40be      	lsls	r6, r7
 8000500:	0032      	movs	r2, r6
 8000502:	1a80      	subs	r0, r0, r2
 8000504:	4199      	sbcs	r1, r3
 8000506:	9000      	str	r0, [sp, #0]
 8000508:	9101      	str	r1, [sp, #4]
 800050a:	e79f      	b.n	800044c <__udivmoddi4+0x84>
 800050c:	42a3      	cmp	r3, r4
 800050e:	d8bc      	bhi.n	800048a <__udivmoddi4+0xc2>
 8000510:	e783      	b.n	800041a <__udivmoddi4+0x52>
 8000512:	4642      	mov	r2, r8
 8000514:	2320      	movs	r3, #32
 8000516:	2100      	movs	r1, #0
 8000518:	1a9b      	subs	r3, r3, r2
 800051a:	2200      	movs	r2, #0
 800051c:	9100      	str	r1, [sp, #0]
 800051e:	9201      	str	r2, [sp, #4]
 8000520:	2201      	movs	r2, #1
 8000522:	40da      	lsrs	r2, r3
 8000524:	9201      	str	r2, [sp, #4]
 8000526:	e786      	b.n	8000436 <__udivmoddi4+0x6e>
 8000528:	4642      	mov	r2, r8
 800052a:	2320      	movs	r3, #32
 800052c:	1a9b      	subs	r3, r3, r2
 800052e:	002a      	movs	r2, r5
 8000530:	4646      	mov	r6, r8
 8000532:	409a      	lsls	r2, r3
 8000534:	0023      	movs	r3, r4
 8000536:	40f3      	lsrs	r3, r6
 8000538:	4644      	mov	r4, r8
 800053a:	4313      	orrs	r3, r2
 800053c:	002a      	movs	r2, r5
 800053e:	40e2      	lsrs	r2, r4
 8000540:	001c      	movs	r4, r3
 8000542:	465b      	mov	r3, fp
 8000544:	0015      	movs	r5, r2
 8000546:	2b00      	cmp	r3, #0
 8000548:	dad4      	bge.n	80004f4 <__udivmoddi4+0x12c>
 800054a:	4642      	mov	r2, r8
 800054c:	002f      	movs	r7, r5
 800054e:	2320      	movs	r3, #32
 8000550:	0026      	movs	r6, r4
 8000552:	4097      	lsls	r7, r2
 8000554:	1a9b      	subs	r3, r3, r2
 8000556:	40de      	lsrs	r6, r3
 8000558:	003b      	movs	r3, r7
 800055a:	4333      	orrs	r3, r6
 800055c:	e7cd      	b.n	80004fa <__udivmoddi4+0x132>
 800055e:	46c0      	nop			; (mov r8, r8)

08000560 <__gnu_ldivmod_helper>:
 8000560:	b5f8      	push	{r3, r4, r5, r6, r7, lr}
 8000562:	46ce      	mov	lr, r9
 8000564:	4647      	mov	r7, r8
 8000566:	b580      	push	{r7, lr}
 8000568:	4691      	mov	r9, r2
 800056a:	4698      	mov	r8, r3
 800056c:	0004      	movs	r4, r0
 800056e:	000d      	movs	r5, r1
 8000570:	f001 fe52 	bl	8002218 <__divdi3>
 8000574:	0007      	movs	r7, r0
 8000576:	000e      	movs	r6, r1
 8000578:	0002      	movs	r2, r0
 800057a:	000b      	movs	r3, r1
 800057c:	4648      	mov	r0, r9
 800057e:	4641      	mov	r1, r8
 8000580:	f001 fdfe 	bl	8002180 <__aeabi_lmul>
 8000584:	1a24      	subs	r4, r4, r0
 8000586:	418d      	sbcs	r5, r1
 8000588:	9b08      	ldr	r3, [sp, #32]
 800058a:	0038      	movs	r0, r7
 800058c:	0031      	movs	r1, r6
 800058e:	601c      	str	r4, [r3, #0]
 8000590:	605d      	str	r5, [r3, #4]
 8000592:	bcc0      	pop	{r6, r7}
 8000594:	46b9      	mov	r9, r7
 8000596:	46b0      	mov	r8, r6
 8000598:	bdf8      	pop	{r3, r4, r5, r6, r7, pc}
 800059a:	46c0      	nop			; (mov r8, r8)

0800059c <__aeabi_dadd>:
 800059c:	b5f0      	push	{r4, r5, r6, r7, lr}
 800059e:	464f      	mov	r7, r9
 80005a0:	4646      	mov	r6, r8
 80005a2:	46d6      	mov	lr, sl
 80005a4:	000d      	movs	r5, r1
 80005a6:	0004      	movs	r4, r0
 80005a8:	b5c0      	push	{r6, r7, lr}
 80005aa:	001f      	movs	r7, r3
 80005ac:	0011      	movs	r1, r2
 80005ae:	0328      	lsls	r0, r5, #12
 80005b0:	0f62      	lsrs	r2, r4, #29
 80005b2:	0a40      	lsrs	r0, r0, #9
 80005b4:	4310      	orrs	r0, r2
 80005b6:	007a      	lsls	r2, r7, #1
 80005b8:	0d52      	lsrs	r2, r2, #21
 80005ba:	00e3      	lsls	r3, r4, #3
 80005bc:	033c      	lsls	r4, r7, #12
 80005be:	4691      	mov	r9, r2
 80005c0:	0a64      	lsrs	r4, r4, #9
 80005c2:	0ffa      	lsrs	r2, r7, #31
 80005c4:	0f4f      	lsrs	r7, r1, #29
 80005c6:	006e      	lsls	r6, r5, #1
 80005c8:	4327      	orrs	r7, r4
 80005ca:	4692      	mov	sl, r2
 80005cc:	46b8      	mov	r8, r7
 80005ce:	0d76      	lsrs	r6, r6, #21
 80005d0:	0fed      	lsrs	r5, r5, #31
 80005d2:	00c9      	lsls	r1, r1, #3
 80005d4:	4295      	cmp	r5, r2
 80005d6:	d100      	bne.n	80005da <__aeabi_dadd+0x3e>
 80005d8:	e099      	b.n	800070e <__aeabi_dadd+0x172>
 80005da:	464c      	mov	r4, r9
 80005dc:	1b34      	subs	r4, r6, r4
 80005de:	46a4      	mov	ip, r4
 80005e0:	2c00      	cmp	r4, #0
 80005e2:	dc00      	bgt.n	80005e6 <__aeabi_dadd+0x4a>
 80005e4:	e07c      	b.n	80006e0 <__aeabi_dadd+0x144>
 80005e6:	464a      	mov	r2, r9
 80005e8:	2a00      	cmp	r2, #0
 80005ea:	d100      	bne.n	80005ee <__aeabi_dadd+0x52>
 80005ec:	e0b8      	b.n	8000760 <__aeabi_dadd+0x1c4>
 80005ee:	4ac5      	ldr	r2, [pc, #788]	; (8000904 <__aeabi_dadd+0x368>)
 80005f0:	4296      	cmp	r6, r2
 80005f2:	d100      	bne.n	80005f6 <__aeabi_dadd+0x5a>
 80005f4:	e11c      	b.n	8000830 <__aeabi_dadd+0x294>
 80005f6:	2280      	movs	r2, #128	; 0x80
 80005f8:	003c      	movs	r4, r7
 80005fa:	0412      	lsls	r2, r2, #16
 80005fc:	4314      	orrs	r4, r2
 80005fe:	46a0      	mov	r8, r4
 8000600:	4662      	mov	r2, ip
 8000602:	2a38      	cmp	r2, #56	; 0x38
 8000604:	dd00      	ble.n	8000608 <__aeabi_dadd+0x6c>
 8000606:	e161      	b.n	80008cc <__aeabi_dadd+0x330>
 8000608:	2a1f      	cmp	r2, #31
 800060a:	dd00      	ble.n	800060e <__aeabi_dadd+0x72>
 800060c:	e1cc      	b.n	80009a8 <__aeabi_dadd+0x40c>
 800060e:	4664      	mov	r4, ip
 8000610:	2220      	movs	r2, #32
 8000612:	1b12      	subs	r2, r2, r4
 8000614:	4644      	mov	r4, r8
 8000616:	4094      	lsls	r4, r2
 8000618:	000f      	movs	r7, r1
 800061a:	46a1      	mov	r9, r4
 800061c:	4664      	mov	r4, ip
 800061e:	4091      	lsls	r1, r2
 8000620:	40e7      	lsrs	r7, r4
 8000622:	464c      	mov	r4, r9
 8000624:	1e4a      	subs	r2, r1, #1
 8000626:	4191      	sbcs	r1, r2
 8000628:	433c      	orrs	r4, r7
 800062a:	4642      	mov	r2, r8
 800062c:	4321      	orrs	r1, r4
 800062e:	4664      	mov	r4, ip
 8000630:	40e2      	lsrs	r2, r4
 8000632:	1a80      	subs	r0, r0, r2
 8000634:	1a5c      	subs	r4, r3, r1
 8000636:	42a3      	cmp	r3, r4
 8000638:	419b      	sbcs	r3, r3
 800063a:	425f      	negs	r7, r3
 800063c:	1bc7      	subs	r7, r0, r7
 800063e:	023b      	lsls	r3, r7, #8
 8000640:	d400      	bmi.n	8000644 <__aeabi_dadd+0xa8>
 8000642:	e0d0      	b.n	80007e6 <__aeabi_dadd+0x24a>
 8000644:	027f      	lsls	r7, r7, #9
 8000646:	0a7f      	lsrs	r7, r7, #9
 8000648:	2f00      	cmp	r7, #0
 800064a:	d100      	bne.n	800064e <__aeabi_dadd+0xb2>
 800064c:	e0ff      	b.n	800084e <__aeabi_dadd+0x2b2>
 800064e:	0038      	movs	r0, r7
 8000650:	f001 fd6c 	bl	800212c <__clzsi2>
 8000654:	0001      	movs	r1, r0
 8000656:	3908      	subs	r1, #8
 8000658:	2320      	movs	r3, #32
 800065a:	0022      	movs	r2, r4
 800065c:	1a5b      	subs	r3, r3, r1
 800065e:	408f      	lsls	r7, r1
 8000660:	40da      	lsrs	r2, r3
 8000662:	408c      	lsls	r4, r1
 8000664:	4317      	orrs	r7, r2
 8000666:	42b1      	cmp	r1, r6
 8000668:	da00      	bge.n	800066c <__aeabi_dadd+0xd0>
 800066a:	e0ff      	b.n	800086c <__aeabi_dadd+0x2d0>
 800066c:	1b89      	subs	r1, r1, r6
 800066e:	1c4b      	adds	r3, r1, #1
 8000670:	2b1f      	cmp	r3, #31
 8000672:	dd00      	ble.n	8000676 <__aeabi_dadd+0xda>
 8000674:	e0a8      	b.n	80007c8 <__aeabi_dadd+0x22c>
 8000676:	2220      	movs	r2, #32
 8000678:	0039      	movs	r1, r7
 800067a:	1ad2      	subs	r2, r2, r3
 800067c:	0020      	movs	r0, r4
 800067e:	4094      	lsls	r4, r2
 8000680:	4091      	lsls	r1, r2
 8000682:	40d8      	lsrs	r0, r3
 8000684:	1e62      	subs	r2, r4, #1
 8000686:	4194      	sbcs	r4, r2
 8000688:	40df      	lsrs	r7, r3
 800068a:	2600      	movs	r6, #0
 800068c:	4301      	orrs	r1, r0
 800068e:	430c      	orrs	r4, r1
 8000690:	0763      	lsls	r3, r4, #29
 8000692:	d009      	beq.n	80006a8 <__aeabi_dadd+0x10c>
 8000694:	230f      	movs	r3, #15
 8000696:	4023      	ands	r3, r4
 8000698:	2b04      	cmp	r3, #4
 800069a:	d005      	beq.n	80006a8 <__aeabi_dadd+0x10c>
 800069c:	1d23      	adds	r3, r4, #4
 800069e:	42a3      	cmp	r3, r4
 80006a0:	41a4      	sbcs	r4, r4
 80006a2:	4264      	negs	r4, r4
 80006a4:	193f      	adds	r7, r7, r4
 80006a6:	001c      	movs	r4, r3
 80006a8:	023b      	lsls	r3, r7, #8
 80006aa:	d400      	bmi.n	80006ae <__aeabi_dadd+0x112>
 80006ac:	e09e      	b.n	80007ec <__aeabi_dadd+0x250>
 80006ae:	4b95      	ldr	r3, [pc, #596]	; (8000904 <__aeabi_dadd+0x368>)
 80006b0:	3601      	adds	r6, #1
 80006b2:	429e      	cmp	r6, r3
 80006b4:	d100      	bne.n	80006b8 <__aeabi_dadd+0x11c>
 80006b6:	e0b7      	b.n	8000828 <__aeabi_dadd+0x28c>
 80006b8:	4a93      	ldr	r2, [pc, #588]	; (8000908 <__aeabi_dadd+0x36c>)
 80006ba:	08e4      	lsrs	r4, r4, #3
 80006bc:	4017      	ands	r7, r2
 80006be:	077b      	lsls	r3, r7, #29
 80006c0:	0571      	lsls	r1, r6, #21
 80006c2:	027f      	lsls	r7, r7, #9
 80006c4:	4323      	orrs	r3, r4
 80006c6:	0b3f      	lsrs	r7, r7, #12
 80006c8:	0d4a      	lsrs	r2, r1, #21
 80006ca:	0512      	lsls	r2, r2, #20
 80006cc:	433a      	orrs	r2, r7
 80006ce:	07ed      	lsls	r5, r5, #31
 80006d0:	432a      	orrs	r2, r5
 80006d2:	0018      	movs	r0, r3
 80006d4:	0011      	movs	r1, r2
 80006d6:	bce0      	pop	{r5, r6, r7}
 80006d8:	46ba      	mov	sl, r7
 80006da:	46b1      	mov	r9, r6
 80006dc:	46a8      	mov	r8, r5
 80006de:	bdf0      	pop	{r4, r5, r6, r7, pc}
 80006e0:	2c00      	cmp	r4, #0
 80006e2:	d04b      	beq.n	800077c <__aeabi_dadd+0x1e0>
 80006e4:	464c      	mov	r4, r9
 80006e6:	1ba4      	subs	r4, r4, r6
 80006e8:	46a4      	mov	ip, r4
 80006ea:	2e00      	cmp	r6, #0
 80006ec:	d000      	beq.n	80006f0 <__aeabi_dadd+0x154>
 80006ee:	e123      	b.n	8000938 <__aeabi_dadd+0x39c>
 80006f0:	0004      	movs	r4, r0
 80006f2:	431c      	orrs	r4, r3
 80006f4:	d100      	bne.n	80006f8 <__aeabi_dadd+0x15c>
 80006f6:	e1af      	b.n	8000a58 <__aeabi_dadd+0x4bc>
 80006f8:	4662      	mov	r2, ip
 80006fa:	1e54      	subs	r4, r2, #1
 80006fc:	2a01      	cmp	r2, #1
 80006fe:	d100      	bne.n	8000702 <__aeabi_dadd+0x166>
 8000700:	e215      	b.n	8000b2e <__aeabi_dadd+0x592>
 8000702:	4d80      	ldr	r5, [pc, #512]	; (8000904 <__aeabi_dadd+0x368>)
 8000704:	45ac      	cmp	ip, r5
 8000706:	d100      	bne.n	800070a <__aeabi_dadd+0x16e>
 8000708:	e1c8      	b.n	8000a9c <__aeabi_dadd+0x500>
 800070a:	46a4      	mov	ip, r4
 800070c:	e11b      	b.n	8000946 <__aeabi_dadd+0x3aa>
 800070e:	464a      	mov	r2, r9
 8000710:	1ab2      	subs	r2, r6, r2
 8000712:	4694      	mov	ip, r2
 8000714:	2a00      	cmp	r2, #0
 8000716:	dc00      	bgt.n	800071a <__aeabi_dadd+0x17e>
 8000718:	e0ac      	b.n	8000874 <__aeabi_dadd+0x2d8>
 800071a:	464a      	mov	r2, r9
 800071c:	2a00      	cmp	r2, #0
 800071e:	d043      	beq.n	80007a8 <__aeabi_dadd+0x20c>
 8000720:	4a78      	ldr	r2, [pc, #480]	; (8000904 <__aeabi_dadd+0x368>)
 8000722:	4296      	cmp	r6, r2
 8000724:	d100      	bne.n	8000728 <__aeabi_dadd+0x18c>
 8000726:	e1af      	b.n	8000a88 <__aeabi_dadd+0x4ec>
 8000728:	2280      	movs	r2, #128	; 0x80
 800072a:	003c      	movs	r4, r7
 800072c:	0412      	lsls	r2, r2, #16
 800072e:	4314      	orrs	r4, r2
 8000730:	46a0      	mov	r8, r4
 8000732:	4662      	mov	r2, ip
 8000734:	2a38      	cmp	r2, #56	; 0x38
 8000736:	dc67      	bgt.n	8000808 <__aeabi_dadd+0x26c>
 8000738:	2a1f      	cmp	r2, #31
 800073a:	dc00      	bgt.n	800073e <__aeabi_dadd+0x1a2>
 800073c:	e15f      	b.n	80009fe <__aeabi_dadd+0x462>
 800073e:	4647      	mov	r7, r8
 8000740:	3a20      	subs	r2, #32
 8000742:	40d7      	lsrs	r7, r2
 8000744:	4662      	mov	r2, ip
 8000746:	2a20      	cmp	r2, #32
 8000748:	d005      	beq.n	8000756 <__aeabi_dadd+0x1ba>
 800074a:	4664      	mov	r4, ip
 800074c:	2240      	movs	r2, #64	; 0x40
 800074e:	1b12      	subs	r2, r2, r4
 8000750:	4644      	mov	r4, r8
 8000752:	4094      	lsls	r4, r2
 8000754:	4321      	orrs	r1, r4
 8000756:	1e4a      	subs	r2, r1, #1
 8000758:	4191      	sbcs	r1, r2
 800075a:	000c      	movs	r4, r1
 800075c:	433c      	orrs	r4, r7
 800075e:	e057      	b.n	8000810 <__aeabi_dadd+0x274>
 8000760:	003a      	movs	r2, r7
 8000762:	430a      	orrs	r2, r1
 8000764:	d100      	bne.n	8000768 <__aeabi_dadd+0x1cc>
 8000766:	e105      	b.n	8000974 <__aeabi_dadd+0x3d8>
 8000768:	0022      	movs	r2, r4
 800076a:	3a01      	subs	r2, #1
 800076c:	2c01      	cmp	r4, #1
 800076e:	d100      	bne.n	8000772 <__aeabi_dadd+0x1d6>
 8000770:	e182      	b.n	8000a78 <__aeabi_dadd+0x4dc>
 8000772:	4c64      	ldr	r4, [pc, #400]	; (8000904 <__aeabi_dadd+0x368>)
 8000774:	45a4      	cmp	ip, r4
 8000776:	d05b      	beq.n	8000830 <__aeabi_dadd+0x294>
 8000778:	4694      	mov	ip, r2
 800077a:	e741      	b.n	8000600 <__aeabi_dadd+0x64>
 800077c:	4c63      	ldr	r4, [pc, #396]	; (800090c <__aeabi_dadd+0x370>)
 800077e:	1c77      	adds	r7, r6, #1
 8000780:	4227      	tst	r7, r4
 8000782:	d000      	beq.n	8000786 <__aeabi_dadd+0x1ea>
 8000784:	e0c4      	b.n	8000910 <__aeabi_dadd+0x374>
 8000786:	0004      	movs	r4, r0
 8000788:	431c      	orrs	r4, r3
 800078a:	2e00      	cmp	r6, #0
 800078c:	d000      	beq.n	8000790 <__aeabi_dadd+0x1f4>
 800078e:	e169      	b.n	8000a64 <__aeabi_dadd+0x4c8>
 8000790:	2c00      	cmp	r4, #0
 8000792:	d100      	bne.n	8000796 <__aeabi_dadd+0x1fa>
 8000794:	e1bf      	b.n	8000b16 <__aeabi_dadd+0x57a>
 8000796:	4644      	mov	r4, r8
 8000798:	430c      	orrs	r4, r1
 800079a:	d000      	beq.n	800079e <__aeabi_dadd+0x202>
 800079c:	e1d0      	b.n	8000b40 <__aeabi_dadd+0x5a4>
 800079e:	0742      	lsls	r2, r0, #29
 80007a0:	08db      	lsrs	r3, r3, #3
 80007a2:	4313      	orrs	r3, r2
 80007a4:	08c0      	lsrs	r0, r0, #3
 80007a6:	e029      	b.n	80007fc <__aeabi_dadd+0x260>
 80007a8:	003a      	movs	r2, r7
 80007aa:	430a      	orrs	r2, r1
 80007ac:	d100      	bne.n	80007b0 <__aeabi_dadd+0x214>
 80007ae:	e170      	b.n	8000a92 <__aeabi_dadd+0x4f6>
 80007b0:	4662      	mov	r2, ip
 80007b2:	4664      	mov	r4, ip
 80007b4:	3a01      	subs	r2, #1
 80007b6:	2c01      	cmp	r4, #1
 80007b8:	d100      	bne.n	80007bc <__aeabi_dadd+0x220>
 80007ba:	e0e0      	b.n	800097e <__aeabi_dadd+0x3e2>
 80007bc:	4c51      	ldr	r4, [pc, #324]	; (8000904 <__aeabi_dadd+0x368>)
 80007be:	45a4      	cmp	ip, r4
 80007c0:	d100      	bne.n	80007c4 <__aeabi_dadd+0x228>
 80007c2:	e161      	b.n	8000a88 <__aeabi_dadd+0x4ec>
 80007c4:	4694      	mov	ip, r2
 80007c6:	e7b4      	b.n	8000732 <__aeabi_dadd+0x196>
 80007c8:	003a      	movs	r2, r7
 80007ca:	391f      	subs	r1, #31
 80007cc:	40ca      	lsrs	r2, r1
 80007ce:	0011      	movs	r1, r2
 80007d0:	2b20      	cmp	r3, #32
 80007d2:	d003      	beq.n	80007dc <__aeabi_dadd+0x240>
 80007d4:	2240      	movs	r2, #64	; 0x40
 80007d6:	1ad3      	subs	r3, r2, r3
 80007d8:	409f      	lsls	r7, r3
 80007da:	433c      	orrs	r4, r7
 80007dc:	1e63      	subs	r3, r4, #1
 80007de:	419c      	sbcs	r4, r3
 80007e0:	2700      	movs	r7, #0
 80007e2:	2600      	movs	r6, #0
 80007e4:	430c      	orrs	r4, r1
 80007e6:	0763      	lsls	r3, r4, #29
 80007e8:	d000      	beq.n	80007ec <__aeabi_dadd+0x250>
 80007ea:	e753      	b.n	8000694 <__aeabi_dadd+0xf8>
 80007ec:	46b4      	mov	ip, r6
 80007ee:	08e4      	lsrs	r4, r4, #3
 80007f0:	077b      	lsls	r3, r7, #29
 80007f2:	4323      	orrs	r3, r4
 80007f4:	08f8      	lsrs	r0, r7, #3
 80007f6:	4a43      	ldr	r2, [pc, #268]	; (8000904 <__aeabi_dadd+0x368>)
 80007f8:	4594      	cmp	ip, r2
 80007fa:	d01d      	beq.n	8000838 <__aeabi_dadd+0x29c>
 80007fc:	4662      	mov	r2, ip
 80007fe:	0307      	lsls	r7, r0, #12
 8000800:	0552      	lsls	r2, r2, #21
 8000802:	0b3f      	lsrs	r7, r7, #12
 8000804:	0d52      	lsrs	r2, r2, #21
 8000806:	e760      	b.n	80006ca <__aeabi_dadd+0x12e>
 8000808:	4644      	mov	r4, r8
 800080a:	430c      	orrs	r4, r1
 800080c:	1e62      	subs	r2, r4, #1
 800080e:	4194      	sbcs	r4, r2
 8000810:	18e4      	adds	r4, r4, r3
 8000812:	429c      	cmp	r4, r3
 8000814:	419b      	sbcs	r3, r3
 8000816:	425f      	negs	r7, r3
 8000818:	183f      	adds	r7, r7, r0
 800081a:	023b      	lsls	r3, r7, #8
 800081c:	d5e3      	bpl.n	80007e6 <__aeabi_dadd+0x24a>
 800081e:	4b39      	ldr	r3, [pc, #228]	; (8000904 <__aeabi_dadd+0x368>)
 8000820:	3601      	adds	r6, #1
 8000822:	429e      	cmp	r6, r3
 8000824:	d000      	beq.n	8000828 <__aeabi_dadd+0x28c>
 8000826:	e0b5      	b.n	8000994 <__aeabi_dadd+0x3f8>
 8000828:	0032      	movs	r2, r6
 800082a:	2700      	movs	r7, #0
 800082c:	2300      	movs	r3, #0
 800082e:	e74c      	b.n	80006ca <__aeabi_dadd+0x12e>
 8000830:	0742      	lsls	r2, r0, #29
 8000832:	08db      	lsrs	r3, r3, #3
 8000834:	4313      	orrs	r3, r2
 8000836:	08c0      	lsrs	r0, r0, #3
 8000838:	001a      	movs	r2, r3
 800083a:	4302      	orrs	r2, r0
 800083c:	d100      	bne.n	8000840 <__aeabi_dadd+0x2a4>
 800083e:	e1e1      	b.n	8000c04 <__aeabi_dadd+0x668>
 8000840:	2780      	movs	r7, #128	; 0x80
 8000842:	033f      	lsls	r7, r7, #12
 8000844:	4307      	orrs	r7, r0
 8000846:	033f      	lsls	r7, r7, #12
 8000848:	4a2e      	ldr	r2, [pc, #184]	; (8000904 <__aeabi_dadd+0x368>)
 800084a:	0b3f      	lsrs	r7, r7, #12
 800084c:	e73d      	b.n	80006ca <__aeabi_dadd+0x12e>
 800084e:	0020      	movs	r0, r4
 8000850:	f001 fc6c 	bl	800212c <__clzsi2>
 8000854:	0001      	movs	r1, r0
 8000856:	3118      	adds	r1, #24
 8000858:	291f      	cmp	r1, #31
 800085a:	dc00      	bgt.n	800085e <__aeabi_dadd+0x2c2>
 800085c:	e6fc      	b.n	8000658 <__aeabi_dadd+0xbc>
 800085e:	3808      	subs	r0, #8
 8000860:	4084      	lsls	r4, r0
 8000862:	0027      	movs	r7, r4
 8000864:	2400      	movs	r4, #0
 8000866:	42b1      	cmp	r1, r6
 8000868:	db00      	blt.n	800086c <__aeabi_dadd+0x2d0>
 800086a:	e6ff      	b.n	800066c <__aeabi_dadd+0xd0>
 800086c:	4a26      	ldr	r2, [pc, #152]	; (8000908 <__aeabi_dadd+0x36c>)
 800086e:	1a76      	subs	r6, r6, r1
 8000870:	4017      	ands	r7, r2
 8000872:	e70d      	b.n	8000690 <__aeabi_dadd+0xf4>
 8000874:	2a00      	cmp	r2, #0
 8000876:	d02f      	beq.n	80008d8 <__aeabi_dadd+0x33c>
 8000878:	464a      	mov	r2, r9
 800087a:	1b92      	subs	r2, r2, r6
 800087c:	4694      	mov	ip, r2
 800087e:	2e00      	cmp	r6, #0
 8000880:	d100      	bne.n	8000884 <__aeabi_dadd+0x2e8>
 8000882:	e0ad      	b.n	80009e0 <__aeabi_dadd+0x444>
 8000884:	4a1f      	ldr	r2, [pc, #124]	; (8000904 <__aeabi_dadd+0x368>)
 8000886:	4591      	cmp	r9, r2
 8000888:	d100      	bne.n	800088c <__aeabi_dadd+0x2f0>
 800088a:	e10f      	b.n	8000aac <__aeabi_dadd+0x510>
 800088c:	2280      	movs	r2, #128	; 0x80
 800088e:	0412      	lsls	r2, r2, #16
 8000890:	4310      	orrs	r0, r2
 8000892:	4662      	mov	r2, ip
 8000894:	2a38      	cmp	r2, #56	; 0x38
 8000896:	dd00      	ble.n	800089a <__aeabi_dadd+0x2fe>
 8000898:	e10f      	b.n	8000aba <__aeabi_dadd+0x51e>
 800089a:	2a1f      	cmp	r2, #31
 800089c:	dd00      	ble.n	80008a0 <__aeabi_dadd+0x304>
 800089e:	e180      	b.n	8000ba2 <__aeabi_dadd+0x606>
 80008a0:	4664      	mov	r4, ip
 80008a2:	2220      	movs	r2, #32
 80008a4:	001e      	movs	r6, r3
 80008a6:	1b12      	subs	r2, r2, r4
 80008a8:	4667      	mov	r7, ip
 80008aa:	0004      	movs	r4, r0
 80008ac:	4093      	lsls	r3, r2
 80008ae:	4094      	lsls	r4, r2
 80008b0:	40fe      	lsrs	r6, r7
 80008b2:	1e5a      	subs	r2, r3, #1
 80008b4:	4193      	sbcs	r3, r2
 80008b6:	40f8      	lsrs	r0, r7
 80008b8:	4334      	orrs	r4, r6
 80008ba:	431c      	orrs	r4, r3
 80008bc:	4480      	add	r8, r0
 80008be:	1864      	adds	r4, r4, r1
 80008c0:	428c      	cmp	r4, r1
 80008c2:	41bf      	sbcs	r7, r7
 80008c4:	427f      	negs	r7, r7
 80008c6:	464e      	mov	r6, r9
 80008c8:	4447      	add	r7, r8
 80008ca:	e7a6      	b.n	800081a <__aeabi_dadd+0x27e>
 80008cc:	4642      	mov	r2, r8
 80008ce:	430a      	orrs	r2, r1
 80008d0:	0011      	movs	r1, r2
 80008d2:	1e4a      	subs	r2, r1, #1
 80008d4:	4191      	sbcs	r1, r2
 80008d6:	e6ad      	b.n	8000634 <__aeabi_dadd+0x98>
 80008d8:	4c0c      	ldr	r4, [pc, #48]	; (800090c <__aeabi_dadd+0x370>)
 80008da:	1c72      	adds	r2, r6, #1
 80008dc:	4222      	tst	r2, r4
 80008de:	d000      	beq.n	80008e2 <__aeabi_dadd+0x346>
 80008e0:	e0a1      	b.n	8000a26 <__aeabi_dadd+0x48a>
 80008e2:	0002      	movs	r2, r0
 80008e4:	431a      	orrs	r2, r3
 80008e6:	2e00      	cmp	r6, #0
 80008e8:	d000      	beq.n	80008ec <__aeabi_dadd+0x350>
 80008ea:	e0fa      	b.n	8000ae2 <__aeabi_dadd+0x546>
 80008ec:	2a00      	cmp	r2, #0
 80008ee:	d100      	bne.n	80008f2 <__aeabi_dadd+0x356>
 80008f0:	e145      	b.n	8000b7e <__aeabi_dadd+0x5e2>
 80008f2:	003a      	movs	r2, r7
 80008f4:	430a      	orrs	r2, r1
 80008f6:	d000      	beq.n	80008fa <__aeabi_dadd+0x35e>
 80008f8:	e146      	b.n	8000b88 <__aeabi_dadd+0x5ec>
 80008fa:	0742      	lsls	r2, r0, #29
 80008fc:	08db      	lsrs	r3, r3, #3
 80008fe:	4313      	orrs	r3, r2
 8000900:	08c0      	lsrs	r0, r0, #3
 8000902:	e77b      	b.n	80007fc <__aeabi_dadd+0x260>
 8000904:	000007ff 	.word	0x000007ff
 8000908:	ff7fffff 	.word	0xff7fffff
 800090c:	000007fe 	.word	0x000007fe
 8000910:	4647      	mov	r7, r8
 8000912:	1a5c      	subs	r4, r3, r1
 8000914:	1bc2      	subs	r2, r0, r7
 8000916:	42a3      	cmp	r3, r4
 8000918:	41bf      	sbcs	r7, r7
 800091a:	427f      	negs	r7, r7
 800091c:	46b9      	mov	r9, r7
 800091e:	0017      	movs	r7, r2
 8000920:	464a      	mov	r2, r9
 8000922:	1abf      	subs	r7, r7, r2
 8000924:	023a      	lsls	r2, r7, #8
 8000926:	d500      	bpl.n	800092a <__aeabi_dadd+0x38e>
 8000928:	e08d      	b.n	8000a46 <__aeabi_dadd+0x4aa>
 800092a:	0023      	movs	r3, r4
 800092c:	433b      	orrs	r3, r7
 800092e:	d000      	beq.n	8000932 <__aeabi_dadd+0x396>
 8000930:	e68a      	b.n	8000648 <__aeabi_dadd+0xac>
 8000932:	2000      	movs	r0, #0
 8000934:	2500      	movs	r5, #0
 8000936:	e761      	b.n	80007fc <__aeabi_dadd+0x260>
 8000938:	4cb4      	ldr	r4, [pc, #720]	; (8000c0c <__aeabi_dadd+0x670>)
 800093a:	45a1      	cmp	r9, r4
 800093c:	d100      	bne.n	8000940 <__aeabi_dadd+0x3a4>
 800093e:	e0ad      	b.n	8000a9c <__aeabi_dadd+0x500>
 8000940:	2480      	movs	r4, #128	; 0x80
 8000942:	0424      	lsls	r4, r4, #16
 8000944:	4320      	orrs	r0, r4
 8000946:	4664      	mov	r4, ip
 8000948:	2c38      	cmp	r4, #56	; 0x38
 800094a:	dc3d      	bgt.n	80009c8 <__aeabi_dadd+0x42c>
 800094c:	4662      	mov	r2, ip
 800094e:	2c1f      	cmp	r4, #31
 8000950:	dd00      	ble.n	8000954 <__aeabi_dadd+0x3b8>
 8000952:	e0b7      	b.n	8000ac4 <__aeabi_dadd+0x528>
 8000954:	2520      	movs	r5, #32
 8000956:	001e      	movs	r6, r3
 8000958:	1b2d      	subs	r5, r5, r4
 800095a:	0004      	movs	r4, r0
 800095c:	40ab      	lsls	r3, r5
 800095e:	40ac      	lsls	r4, r5
 8000960:	40d6      	lsrs	r6, r2
 8000962:	40d0      	lsrs	r0, r2
 8000964:	4642      	mov	r2, r8
 8000966:	1e5d      	subs	r5, r3, #1
 8000968:	41ab      	sbcs	r3, r5
 800096a:	4334      	orrs	r4, r6
 800096c:	1a12      	subs	r2, r2, r0
 800096e:	4690      	mov	r8, r2
 8000970:	4323      	orrs	r3, r4
 8000972:	e02c      	b.n	80009ce <__aeabi_dadd+0x432>
 8000974:	0742      	lsls	r2, r0, #29
 8000976:	08db      	lsrs	r3, r3, #3
 8000978:	4313      	orrs	r3, r2
 800097a:	08c0      	lsrs	r0, r0, #3
 800097c:	e73b      	b.n	80007f6 <__aeabi_dadd+0x25a>
 800097e:	185c      	adds	r4, r3, r1
 8000980:	429c      	cmp	r4, r3
 8000982:	419b      	sbcs	r3, r3
 8000984:	4440      	add	r0, r8
 8000986:	425b      	negs	r3, r3
 8000988:	18c7      	adds	r7, r0, r3
 800098a:	2601      	movs	r6, #1
 800098c:	023b      	lsls	r3, r7, #8
 800098e:	d400      	bmi.n	8000992 <__aeabi_dadd+0x3f6>
 8000990:	e729      	b.n	80007e6 <__aeabi_dadd+0x24a>
 8000992:	2602      	movs	r6, #2
 8000994:	4a9e      	ldr	r2, [pc, #632]	; (8000c10 <__aeabi_dadd+0x674>)
 8000996:	0863      	lsrs	r3, r4, #1
 8000998:	4017      	ands	r7, r2
 800099a:	2201      	movs	r2, #1
 800099c:	4014      	ands	r4, r2
 800099e:	431c      	orrs	r4, r3
 80009a0:	07fb      	lsls	r3, r7, #31
 80009a2:	431c      	orrs	r4, r3
 80009a4:	087f      	lsrs	r7, r7, #1
 80009a6:	e673      	b.n	8000690 <__aeabi_dadd+0xf4>
 80009a8:	4644      	mov	r4, r8
 80009aa:	3a20      	subs	r2, #32
 80009ac:	40d4      	lsrs	r4, r2
 80009ae:	4662      	mov	r2, ip
 80009b0:	2a20      	cmp	r2, #32
 80009b2:	d005      	beq.n	80009c0 <__aeabi_dadd+0x424>
 80009b4:	4667      	mov	r7, ip
 80009b6:	2240      	movs	r2, #64	; 0x40
 80009b8:	1bd2      	subs	r2, r2, r7
 80009ba:	4647      	mov	r7, r8
 80009bc:	4097      	lsls	r7, r2
 80009be:	4339      	orrs	r1, r7
 80009c0:	1e4a      	subs	r2, r1, #1
 80009c2:	4191      	sbcs	r1, r2
 80009c4:	4321      	orrs	r1, r4
 80009c6:	e635      	b.n	8000634 <__aeabi_dadd+0x98>
 80009c8:	4303      	orrs	r3, r0
 80009ca:	1e58      	subs	r0, r3, #1
 80009cc:	4183      	sbcs	r3, r0
 80009ce:	1acc      	subs	r4, r1, r3
 80009d0:	42a1      	cmp	r1, r4
 80009d2:	41bf      	sbcs	r7, r7
 80009d4:	4643      	mov	r3, r8
 80009d6:	427f      	negs	r7, r7
 80009d8:	4655      	mov	r5, sl
 80009da:	464e      	mov	r6, r9
 80009dc:	1bdf      	subs	r7, r3, r7
 80009de:	e62e      	b.n	800063e <__aeabi_dadd+0xa2>
 80009e0:	0002      	movs	r2, r0
 80009e2:	431a      	orrs	r2, r3
 80009e4:	d100      	bne.n	80009e8 <__aeabi_dadd+0x44c>
 80009e6:	e0bd      	b.n	8000b64 <__aeabi_dadd+0x5c8>
 80009e8:	4662      	mov	r2, ip
 80009ea:	4664      	mov	r4, ip
 80009ec:	3a01      	subs	r2, #1
 80009ee:	2c01      	cmp	r4, #1
 80009f0:	d100      	bne.n	80009f4 <__aeabi_dadd+0x458>
 80009f2:	e0e5      	b.n	8000bc0 <__aeabi_dadd+0x624>
 80009f4:	4c85      	ldr	r4, [pc, #532]	; (8000c0c <__aeabi_dadd+0x670>)
 80009f6:	45a4      	cmp	ip, r4
 80009f8:	d058      	beq.n	8000aac <__aeabi_dadd+0x510>
 80009fa:	4694      	mov	ip, r2
 80009fc:	e749      	b.n	8000892 <__aeabi_dadd+0x2f6>
 80009fe:	4664      	mov	r4, ip
 8000a00:	2220      	movs	r2, #32
 8000a02:	1b12      	subs	r2, r2, r4
 8000a04:	4644      	mov	r4, r8
 8000a06:	4094      	lsls	r4, r2
 8000a08:	000f      	movs	r7, r1
 8000a0a:	46a1      	mov	r9, r4
 8000a0c:	4664      	mov	r4, ip
 8000a0e:	4091      	lsls	r1, r2
 8000a10:	40e7      	lsrs	r7, r4
 8000a12:	464c      	mov	r4, r9
 8000a14:	1e4a      	subs	r2, r1, #1
 8000a16:	4191      	sbcs	r1, r2
 8000a18:	433c      	orrs	r4, r7
 8000a1a:	4642      	mov	r2, r8
 8000a1c:	430c      	orrs	r4, r1
 8000a1e:	4661      	mov	r1, ip
 8000a20:	40ca      	lsrs	r2, r1
 8000a22:	1880      	adds	r0, r0, r2
 8000a24:	e6f4      	b.n	8000810 <__aeabi_dadd+0x274>
 8000a26:	4c79      	ldr	r4, [pc, #484]	; (8000c0c <__aeabi_dadd+0x670>)
 8000a28:	42a2      	cmp	r2, r4
 8000a2a:	d100      	bne.n	8000a2e <__aeabi_dadd+0x492>
 8000a2c:	e6fd      	b.n	800082a <__aeabi_dadd+0x28e>
 8000a2e:	1859      	adds	r1, r3, r1
 8000a30:	4299      	cmp	r1, r3
 8000a32:	419b      	sbcs	r3, r3
 8000a34:	4440      	add	r0, r8
 8000a36:	425f      	negs	r7, r3
 8000a38:	19c7      	adds	r7, r0, r7
 8000a3a:	07fc      	lsls	r4, r7, #31
 8000a3c:	0849      	lsrs	r1, r1, #1
 8000a3e:	0016      	movs	r6, r2
 8000a40:	430c      	orrs	r4, r1
 8000a42:	087f      	lsrs	r7, r7, #1
 8000a44:	e6cf      	b.n	80007e6 <__aeabi_dadd+0x24a>
 8000a46:	1acc      	subs	r4, r1, r3
 8000a48:	42a1      	cmp	r1, r4
 8000a4a:	41bf      	sbcs	r7, r7
 8000a4c:	4643      	mov	r3, r8
 8000a4e:	427f      	negs	r7, r7
 8000a50:	1a18      	subs	r0, r3, r0
 8000a52:	4655      	mov	r5, sl
 8000a54:	1bc7      	subs	r7, r0, r7
 8000a56:	e5f7      	b.n	8000648 <__aeabi_dadd+0xac>
 8000a58:	08c9      	lsrs	r1, r1, #3
 8000a5a:	077b      	lsls	r3, r7, #29
 8000a5c:	4655      	mov	r5, sl
 8000a5e:	430b      	orrs	r3, r1
 8000a60:	08f8      	lsrs	r0, r7, #3
 8000a62:	e6c8      	b.n	80007f6 <__aeabi_dadd+0x25a>
 8000a64:	2c00      	cmp	r4, #0
 8000a66:	d000      	beq.n	8000a6a <__aeabi_dadd+0x4ce>
 8000a68:	e081      	b.n	8000b6e <__aeabi_dadd+0x5d2>
 8000a6a:	4643      	mov	r3, r8
 8000a6c:	430b      	orrs	r3, r1
 8000a6e:	d115      	bne.n	8000a9c <__aeabi_dadd+0x500>
 8000a70:	2080      	movs	r0, #128	; 0x80
 8000a72:	2500      	movs	r5, #0
 8000a74:	0300      	lsls	r0, r0, #12
 8000a76:	e6e3      	b.n	8000840 <__aeabi_dadd+0x2a4>
 8000a78:	1a5c      	subs	r4, r3, r1
 8000a7a:	42a3      	cmp	r3, r4
 8000a7c:	419b      	sbcs	r3, r3
 8000a7e:	1bc7      	subs	r7, r0, r7
 8000a80:	425b      	negs	r3, r3
 8000a82:	2601      	movs	r6, #1
 8000a84:	1aff      	subs	r7, r7, r3
 8000a86:	e5da      	b.n	800063e <__aeabi_dadd+0xa2>
 8000a88:	0742      	lsls	r2, r0, #29
 8000a8a:	08db      	lsrs	r3, r3, #3
 8000a8c:	4313      	orrs	r3, r2
 8000a8e:	08c0      	lsrs	r0, r0, #3
 8000a90:	e6d2      	b.n	8000838 <__aeabi_dadd+0x29c>
 8000a92:	0742      	lsls	r2, r0, #29
 8000a94:	08db      	lsrs	r3, r3, #3
 8000a96:	4313      	orrs	r3, r2
 8000a98:	08c0      	lsrs	r0, r0, #3
 8000a9a:	e6ac      	b.n	80007f6 <__aeabi_dadd+0x25a>
 8000a9c:	4643      	mov	r3, r8
 8000a9e:	4642      	mov	r2, r8
 8000aa0:	08c9      	lsrs	r1, r1, #3
 8000aa2:	075b      	lsls	r3, r3, #29
 8000aa4:	4655      	mov	r5, sl
 8000aa6:	430b      	orrs	r3, r1
 8000aa8:	08d0      	lsrs	r0, r2, #3
 8000aaa:	e6c5      	b.n	8000838 <__aeabi_dadd+0x29c>
 8000aac:	4643      	mov	r3, r8
 8000aae:	4642      	mov	r2, r8
 8000ab0:	075b      	lsls	r3, r3, #29
 8000ab2:	08c9      	lsrs	r1, r1, #3
 8000ab4:	430b      	orrs	r3, r1
 8000ab6:	08d0      	lsrs	r0, r2, #3
 8000ab8:	e6be      	b.n	8000838 <__aeabi_dadd+0x29c>
 8000aba:	4303      	orrs	r3, r0
 8000abc:	001c      	movs	r4, r3
 8000abe:	1e63      	subs	r3, r4, #1
 8000ac0:	419c      	sbcs	r4, r3
 8000ac2:	e6fc      	b.n	80008be <__aeabi_dadd+0x322>
 8000ac4:	0002      	movs	r2, r0
 8000ac6:	3c20      	subs	r4, #32
 8000ac8:	40e2      	lsrs	r2, r4
 8000aca:	0014      	movs	r4, r2
 8000acc:	4662      	mov	r2, ip
 8000ace:	2a20      	cmp	r2, #32
 8000ad0:	d003      	beq.n	8000ada <__aeabi_dadd+0x53e>
 8000ad2:	2540      	movs	r5, #64	; 0x40
 8000ad4:	1aad      	subs	r5, r5, r2
 8000ad6:	40a8      	lsls	r0, r5
 8000ad8:	4303      	orrs	r3, r0
 8000ada:	1e58      	subs	r0, r3, #1
 8000adc:	4183      	sbcs	r3, r0
 8000ade:	4323      	orrs	r3, r4
 8000ae0:	e775      	b.n	80009ce <__aeabi_dadd+0x432>
 8000ae2:	2a00      	cmp	r2, #0
 8000ae4:	d0e2      	beq.n	8000aac <__aeabi_dadd+0x510>
 8000ae6:	003a      	movs	r2, r7
 8000ae8:	430a      	orrs	r2, r1
 8000aea:	d0cd      	beq.n	8000a88 <__aeabi_dadd+0x4ec>
 8000aec:	0742      	lsls	r2, r0, #29
 8000aee:	08db      	lsrs	r3, r3, #3
 8000af0:	4313      	orrs	r3, r2
 8000af2:	2280      	movs	r2, #128	; 0x80
 8000af4:	08c0      	lsrs	r0, r0, #3
 8000af6:	0312      	lsls	r2, r2, #12
 8000af8:	4210      	tst	r0, r2
 8000afa:	d006      	beq.n	8000b0a <__aeabi_dadd+0x56e>
 8000afc:	08fc      	lsrs	r4, r7, #3
 8000afe:	4214      	tst	r4, r2
 8000b00:	d103      	bne.n	8000b0a <__aeabi_dadd+0x56e>
 8000b02:	0020      	movs	r0, r4
 8000b04:	08cb      	lsrs	r3, r1, #3
 8000b06:	077a      	lsls	r2, r7, #29
 8000b08:	4313      	orrs	r3, r2
 8000b0a:	0f5a      	lsrs	r2, r3, #29
 8000b0c:	00db      	lsls	r3, r3, #3
 8000b0e:	0752      	lsls	r2, r2, #29
 8000b10:	08db      	lsrs	r3, r3, #3
 8000b12:	4313      	orrs	r3, r2
 8000b14:	e690      	b.n	8000838 <__aeabi_dadd+0x29c>
 8000b16:	4643      	mov	r3, r8
 8000b18:	430b      	orrs	r3, r1
 8000b1a:	d100      	bne.n	8000b1e <__aeabi_dadd+0x582>
 8000b1c:	e709      	b.n	8000932 <__aeabi_dadd+0x396>
 8000b1e:	4643      	mov	r3, r8
 8000b20:	4642      	mov	r2, r8
 8000b22:	08c9      	lsrs	r1, r1, #3
 8000b24:	075b      	lsls	r3, r3, #29
 8000b26:	4655      	mov	r5, sl
 8000b28:	430b      	orrs	r3, r1
 8000b2a:	08d0      	lsrs	r0, r2, #3
 8000b2c:	e666      	b.n	80007fc <__aeabi_dadd+0x260>
 8000b2e:	1acc      	subs	r4, r1, r3
 8000b30:	42a1      	cmp	r1, r4
 8000b32:	4189      	sbcs	r1, r1
 8000b34:	1a3f      	subs	r7, r7, r0
 8000b36:	4249      	negs	r1, r1
 8000b38:	4655      	mov	r5, sl
 8000b3a:	2601      	movs	r6, #1
 8000b3c:	1a7f      	subs	r7, r7, r1
 8000b3e:	e57e      	b.n	800063e <__aeabi_dadd+0xa2>
 8000b40:	4642      	mov	r2, r8
 8000b42:	1a5c      	subs	r4, r3, r1
 8000b44:	1a87      	subs	r7, r0, r2
 8000b46:	42a3      	cmp	r3, r4
 8000b48:	4192      	sbcs	r2, r2
 8000b4a:	4252      	negs	r2, r2
 8000b4c:	1abf      	subs	r7, r7, r2
 8000b4e:	023a      	lsls	r2, r7, #8
 8000b50:	d53d      	bpl.n	8000bce <__aeabi_dadd+0x632>
 8000b52:	1acc      	subs	r4, r1, r3
 8000b54:	42a1      	cmp	r1, r4
 8000b56:	4189      	sbcs	r1, r1
 8000b58:	4643      	mov	r3, r8
 8000b5a:	4249      	negs	r1, r1
 8000b5c:	1a1f      	subs	r7, r3, r0
 8000b5e:	4655      	mov	r5, sl
 8000b60:	1a7f      	subs	r7, r7, r1
 8000b62:	e595      	b.n	8000690 <__aeabi_dadd+0xf4>
 8000b64:	077b      	lsls	r3, r7, #29
 8000b66:	08c9      	lsrs	r1, r1, #3
 8000b68:	430b      	orrs	r3, r1
 8000b6a:	08f8      	lsrs	r0, r7, #3
 8000b6c:	e643      	b.n	80007f6 <__aeabi_dadd+0x25a>
 8000b6e:	4644      	mov	r4, r8
 8000b70:	08db      	lsrs	r3, r3, #3
 8000b72:	430c      	orrs	r4, r1
 8000b74:	d130      	bne.n	8000bd8 <__aeabi_dadd+0x63c>
 8000b76:	0742      	lsls	r2, r0, #29
 8000b78:	4313      	orrs	r3, r2
 8000b7a:	08c0      	lsrs	r0, r0, #3
 8000b7c:	e65c      	b.n	8000838 <__aeabi_dadd+0x29c>
 8000b7e:	077b      	lsls	r3, r7, #29
 8000b80:	08c9      	lsrs	r1, r1, #3
 8000b82:	430b      	orrs	r3, r1
 8000b84:	08f8      	lsrs	r0, r7, #3
 8000b86:	e639      	b.n	80007fc <__aeabi_dadd+0x260>
 8000b88:	185c      	adds	r4, r3, r1
 8000b8a:	429c      	cmp	r4, r3
 8000b8c:	419b      	sbcs	r3, r3
 8000b8e:	4440      	add	r0, r8
 8000b90:	425b      	negs	r3, r3
 8000b92:	18c7      	adds	r7, r0, r3
 8000b94:	023b      	lsls	r3, r7, #8
 8000b96:	d400      	bmi.n	8000b9a <__aeabi_dadd+0x5fe>
 8000b98:	e625      	b.n	80007e6 <__aeabi_dadd+0x24a>
 8000b9a:	4b1d      	ldr	r3, [pc, #116]	; (8000c10 <__aeabi_dadd+0x674>)
 8000b9c:	2601      	movs	r6, #1
 8000b9e:	401f      	ands	r7, r3
 8000ba0:	e621      	b.n	80007e6 <__aeabi_dadd+0x24a>
 8000ba2:	0004      	movs	r4, r0
 8000ba4:	3a20      	subs	r2, #32
 8000ba6:	40d4      	lsrs	r4, r2
 8000ba8:	4662      	mov	r2, ip
 8000baa:	2a20      	cmp	r2, #32
 8000bac:	d004      	beq.n	8000bb8 <__aeabi_dadd+0x61c>
 8000bae:	2240      	movs	r2, #64	; 0x40
 8000bb0:	4666      	mov	r6, ip
 8000bb2:	1b92      	subs	r2, r2, r6
 8000bb4:	4090      	lsls	r0, r2
 8000bb6:	4303      	orrs	r3, r0
 8000bb8:	1e5a      	subs	r2, r3, #1
 8000bba:	4193      	sbcs	r3, r2
 8000bbc:	431c      	orrs	r4, r3
 8000bbe:	e67e      	b.n	80008be <__aeabi_dadd+0x322>
 8000bc0:	185c      	adds	r4, r3, r1
 8000bc2:	428c      	cmp	r4, r1
 8000bc4:	4189      	sbcs	r1, r1
 8000bc6:	4440      	add	r0, r8
 8000bc8:	4249      	negs	r1, r1
 8000bca:	1847      	adds	r7, r0, r1
 8000bcc:	e6dd      	b.n	800098a <__aeabi_dadd+0x3ee>
 8000bce:	0023      	movs	r3, r4
 8000bd0:	433b      	orrs	r3, r7
 8000bd2:	d100      	bne.n	8000bd6 <__aeabi_dadd+0x63a>
 8000bd4:	e6ad      	b.n	8000932 <__aeabi_dadd+0x396>
 8000bd6:	e606      	b.n	80007e6 <__aeabi_dadd+0x24a>
 8000bd8:	0744      	lsls	r4, r0, #29
 8000bda:	4323      	orrs	r3, r4
 8000bdc:	2480      	movs	r4, #128	; 0x80
 8000bde:	08c0      	lsrs	r0, r0, #3
 8000be0:	0324      	lsls	r4, r4, #12
 8000be2:	4220      	tst	r0, r4
 8000be4:	d008      	beq.n	8000bf8 <__aeabi_dadd+0x65c>
 8000be6:	4642      	mov	r2, r8
 8000be8:	08d6      	lsrs	r6, r2, #3
 8000bea:	4226      	tst	r6, r4
 8000bec:	d104      	bne.n	8000bf8 <__aeabi_dadd+0x65c>
 8000bee:	4655      	mov	r5, sl
 8000bf0:	0030      	movs	r0, r6
 8000bf2:	08cb      	lsrs	r3, r1, #3
 8000bf4:	0751      	lsls	r1, r2, #29
 8000bf6:	430b      	orrs	r3, r1
 8000bf8:	0f5a      	lsrs	r2, r3, #29
 8000bfa:	00db      	lsls	r3, r3, #3
 8000bfc:	08db      	lsrs	r3, r3, #3
 8000bfe:	0752      	lsls	r2, r2, #29
 8000c00:	4313      	orrs	r3, r2
 8000c02:	e619      	b.n	8000838 <__aeabi_dadd+0x29c>
 8000c04:	2300      	movs	r3, #0
 8000c06:	4a01      	ldr	r2, [pc, #4]	; (8000c0c <__aeabi_dadd+0x670>)
 8000c08:	001f      	movs	r7, r3
 8000c0a:	e55e      	b.n	80006ca <__aeabi_dadd+0x12e>
 8000c0c:	000007ff 	.word	0x000007ff
 8000c10:	ff7fffff 	.word	0xff7fffff

08000c14 <__aeabi_ddiv>:
 8000c14:	b5f0      	push	{r4, r5, r6, r7, lr}
 8000c16:	4657      	mov	r7, sl
 8000c18:	464e      	mov	r6, r9
 8000c1a:	4645      	mov	r5, r8
 8000c1c:	46de      	mov	lr, fp
 8000c1e:	b5e0      	push	{r5, r6, r7, lr}
 8000c20:	4681      	mov	r9, r0
 8000c22:	0005      	movs	r5, r0
 8000c24:	030c      	lsls	r4, r1, #12
 8000c26:	0048      	lsls	r0, r1, #1
 8000c28:	4692      	mov	sl, r2
 8000c2a:	001f      	movs	r7, r3
 8000c2c:	b085      	sub	sp, #20
 8000c2e:	0b24      	lsrs	r4, r4, #12
 8000c30:	0d40      	lsrs	r0, r0, #21
 8000c32:	0fce      	lsrs	r6, r1, #31
 8000c34:	2800      	cmp	r0, #0
 8000c36:	d100      	bne.n	8000c3a <__aeabi_ddiv+0x26>
 8000c38:	e156      	b.n	8000ee8 <__aeabi_ddiv+0x2d4>
 8000c3a:	4bd4      	ldr	r3, [pc, #848]	; (8000f8c <__aeabi_ddiv+0x378>)
 8000c3c:	4298      	cmp	r0, r3
 8000c3e:	d100      	bne.n	8000c42 <__aeabi_ddiv+0x2e>
 8000c40:	e172      	b.n	8000f28 <__aeabi_ddiv+0x314>
 8000c42:	0f6b      	lsrs	r3, r5, #29
 8000c44:	00e4      	lsls	r4, r4, #3
 8000c46:	431c      	orrs	r4, r3
 8000c48:	2380      	movs	r3, #128	; 0x80
 8000c4a:	041b      	lsls	r3, r3, #16
 8000c4c:	4323      	orrs	r3, r4
 8000c4e:	4698      	mov	r8, r3
 8000c50:	4bcf      	ldr	r3, [pc, #828]	; (8000f90 <__aeabi_ddiv+0x37c>)
 8000c52:	00ed      	lsls	r5, r5, #3
 8000c54:	469b      	mov	fp, r3
 8000c56:	2300      	movs	r3, #0
 8000c58:	4699      	mov	r9, r3
 8000c5a:	4483      	add	fp, r0
 8000c5c:	9300      	str	r3, [sp, #0]
 8000c5e:	033c      	lsls	r4, r7, #12
 8000c60:	007b      	lsls	r3, r7, #1
 8000c62:	4650      	mov	r0, sl
 8000c64:	0b24      	lsrs	r4, r4, #12
 8000c66:	0d5b      	lsrs	r3, r3, #21
 8000c68:	0fff      	lsrs	r7, r7, #31
 8000c6a:	2b00      	cmp	r3, #0
 8000c6c:	d100      	bne.n	8000c70 <__aeabi_ddiv+0x5c>
 8000c6e:	e11f      	b.n	8000eb0 <__aeabi_ddiv+0x29c>
 8000c70:	4ac6      	ldr	r2, [pc, #792]	; (8000f8c <__aeabi_ddiv+0x378>)
 8000c72:	4293      	cmp	r3, r2
 8000c74:	d100      	bne.n	8000c78 <__aeabi_ddiv+0x64>
 8000c76:	e162      	b.n	8000f3e <__aeabi_ddiv+0x32a>
 8000c78:	49c5      	ldr	r1, [pc, #788]	; (8000f90 <__aeabi_ddiv+0x37c>)
 8000c7a:	0f42      	lsrs	r2, r0, #29
 8000c7c:	468c      	mov	ip, r1
 8000c7e:	00e4      	lsls	r4, r4, #3
 8000c80:	4659      	mov	r1, fp
 8000c82:	4314      	orrs	r4, r2
 8000c84:	2280      	movs	r2, #128	; 0x80
 8000c86:	4463      	add	r3, ip
 8000c88:	0412      	lsls	r2, r2, #16
 8000c8a:	1acb      	subs	r3, r1, r3
 8000c8c:	4314      	orrs	r4, r2
 8000c8e:	469b      	mov	fp, r3
 8000c90:	00c2      	lsls	r2, r0, #3
 8000c92:	2000      	movs	r0, #0
 8000c94:	0033      	movs	r3, r6
 8000c96:	407b      	eors	r3, r7
 8000c98:	469a      	mov	sl, r3
 8000c9a:	464b      	mov	r3, r9
 8000c9c:	2b0f      	cmp	r3, #15
 8000c9e:	d827      	bhi.n	8000cf0 <__aeabi_ddiv+0xdc>
 8000ca0:	49bc      	ldr	r1, [pc, #752]	; (8000f94 <__aeabi_ddiv+0x380>)
 8000ca2:	009b      	lsls	r3, r3, #2
 8000ca4:	58cb      	ldr	r3, [r1, r3]
 8000ca6:	469f      	mov	pc, r3
 8000ca8:	46b2      	mov	sl, r6
 8000caa:	9b00      	ldr	r3, [sp, #0]
 8000cac:	2b02      	cmp	r3, #2
 8000cae:	d016      	beq.n	8000cde <__aeabi_ddiv+0xca>
 8000cb0:	2b03      	cmp	r3, #3
 8000cb2:	d100      	bne.n	8000cb6 <__aeabi_ddiv+0xa2>
 8000cb4:	e28e      	b.n	80011d4 <__aeabi_ddiv+0x5c0>
 8000cb6:	2b01      	cmp	r3, #1
 8000cb8:	d000      	beq.n	8000cbc <__aeabi_ddiv+0xa8>
 8000cba:	e0d9      	b.n	8000e70 <__aeabi_ddiv+0x25c>
 8000cbc:	2300      	movs	r3, #0
 8000cbe:	2400      	movs	r4, #0
 8000cc0:	2500      	movs	r5, #0
 8000cc2:	4652      	mov	r2, sl
 8000cc4:	051b      	lsls	r3, r3, #20
 8000cc6:	4323      	orrs	r3, r4
 8000cc8:	07d2      	lsls	r2, r2, #31
 8000cca:	4313      	orrs	r3, r2
 8000ccc:	0028      	movs	r0, r5
 8000cce:	0019      	movs	r1, r3
 8000cd0:	b005      	add	sp, #20
 8000cd2:	bcf0      	pop	{r4, r5, r6, r7}
 8000cd4:	46bb      	mov	fp, r7
 8000cd6:	46b2      	mov	sl, r6
 8000cd8:	46a9      	mov	r9, r5
 8000cda:	46a0      	mov	r8, r4
 8000cdc:	bdf0      	pop	{r4, r5, r6, r7, pc}
 8000cde:	2400      	movs	r4, #0
 8000ce0:	2500      	movs	r5, #0
 8000ce2:	4baa      	ldr	r3, [pc, #680]	; (8000f8c <__aeabi_ddiv+0x378>)
 8000ce4:	e7ed      	b.n	8000cc2 <__aeabi_ddiv+0xae>
 8000ce6:	46ba      	mov	sl, r7
 8000ce8:	46a0      	mov	r8, r4
 8000cea:	0015      	movs	r5, r2
 8000cec:	9000      	str	r0, [sp, #0]
 8000cee:	e7dc      	b.n	8000caa <__aeabi_ddiv+0x96>
 8000cf0:	4544      	cmp	r4, r8
 8000cf2:	d200      	bcs.n	8000cf6 <__aeabi_ddiv+0xe2>
 8000cf4:	e1c7      	b.n	8001086 <__aeabi_ddiv+0x472>
 8000cf6:	d100      	bne.n	8000cfa <__aeabi_ddiv+0xe6>
 8000cf8:	e1c2      	b.n	8001080 <__aeabi_ddiv+0x46c>
 8000cfa:	2301      	movs	r3, #1
 8000cfc:	425b      	negs	r3, r3
 8000cfe:	469c      	mov	ip, r3
 8000d00:	002e      	movs	r6, r5
 8000d02:	4640      	mov	r0, r8
 8000d04:	2500      	movs	r5, #0
 8000d06:	44e3      	add	fp, ip
 8000d08:	0223      	lsls	r3, r4, #8
 8000d0a:	0e14      	lsrs	r4, r2, #24
 8000d0c:	431c      	orrs	r4, r3
 8000d0e:	0c1b      	lsrs	r3, r3, #16
 8000d10:	4699      	mov	r9, r3
 8000d12:	0423      	lsls	r3, r4, #16
 8000d14:	0c1f      	lsrs	r7, r3, #16
 8000d16:	0212      	lsls	r2, r2, #8
 8000d18:	4649      	mov	r1, r9
 8000d1a:	9200      	str	r2, [sp, #0]
 8000d1c:	9701      	str	r7, [sp, #4]
 8000d1e:	f7ff fa79 	bl	8000214 <__aeabi_uidivmod>
 8000d22:	0002      	movs	r2, r0
 8000d24:	437a      	muls	r2, r7
 8000d26:	040b      	lsls	r3, r1, #16
 8000d28:	0c31      	lsrs	r1, r6, #16
 8000d2a:	4680      	mov	r8, r0
 8000d2c:	4319      	orrs	r1, r3
 8000d2e:	428a      	cmp	r2, r1
 8000d30:	d907      	bls.n	8000d42 <__aeabi_ddiv+0x12e>
 8000d32:	2301      	movs	r3, #1
 8000d34:	425b      	negs	r3, r3
 8000d36:	469c      	mov	ip, r3
 8000d38:	1909      	adds	r1, r1, r4
 8000d3a:	44e0      	add	r8, ip
 8000d3c:	428c      	cmp	r4, r1
 8000d3e:	d800      	bhi.n	8000d42 <__aeabi_ddiv+0x12e>
 8000d40:	e207      	b.n	8001152 <__aeabi_ddiv+0x53e>
 8000d42:	1a88      	subs	r0, r1, r2
 8000d44:	4649      	mov	r1, r9
 8000d46:	f7ff fa65 	bl	8000214 <__aeabi_uidivmod>
 8000d4a:	0409      	lsls	r1, r1, #16
 8000d4c:	468c      	mov	ip, r1
 8000d4e:	0431      	lsls	r1, r6, #16
 8000d50:	4666      	mov	r6, ip
 8000d52:	9a01      	ldr	r2, [sp, #4]
 8000d54:	0c09      	lsrs	r1, r1, #16
 8000d56:	4342      	muls	r2, r0
 8000d58:	0003      	movs	r3, r0
 8000d5a:	4331      	orrs	r1, r6
 8000d5c:	428a      	cmp	r2, r1
 8000d5e:	d904      	bls.n	8000d6a <__aeabi_ddiv+0x156>
 8000d60:	1909      	adds	r1, r1, r4
 8000d62:	3b01      	subs	r3, #1
 8000d64:	428c      	cmp	r4, r1
 8000d66:	d800      	bhi.n	8000d6a <__aeabi_ddiv+0x156>
 8000d68:	e1ed      	b.n	8001146 <__aeabi_ddiv+0x532>
 8000d6a:	1a88      	subs	r0, r1, r2
 8000d6c:	4642      	mov	r2, r8
 8000d6e:	0412      	lsls	r2, r2, #16
 8000d70:	431a      	orrs	r2, r3
 8000d72:	4690      	mov	r8, r2
 8000d74:	4641      	mov	r1, r8
 8000d76:	9b00      	ldr	r3, [sp, #0]
 8000d78:	040e      	lsls	r6, r1, #16
 8000d7a:	0c1b      	lsrs	r3, r3, #16
 8000d7c:	001f      	movs	r7, r3
 8000d7e:	9302      	str	r3, [sp, #8]
 8000d80:	9b00      	ldr	r3, [sp, #0]
 8000d82:	0c36      	lsrs	r6, r6, #16
 8000d84:	041b      	lsls	r3, r3, #16
 8000d86:	0c19      	lsrs	r1, r3, #16
 8000d88:	000b      	movs	r3, r1
 8000d8a:	4373      	muls	r3, r6
 8000d8c:	0c12      	lsrs	r2, r2, #16
 8000d8e:	437e      	muls	r6, r7
 8000d90:	9103      	str	r1, [sp, #12]
 8000d92:	4351      	muls	r1, r2
 8000d94:	437a      	muls	r2, r7
 8000d96:	0c1f      	lsrs	r7, r3, #16
 8000d98:	46bc      	mov	ip, r7
 8000d9a:	1876      	adds	r6, r6, r1
 8000d9c:	4466      	add	r6, ip
 8000d9e:	42b1      	cmp	r1, r6
 8000da0:	d903      	bls.n	8000daa <__aeabi_ddiv+0x196>
 8000da2:	2180      	movs	r1, #128	; 0x80
 8000da4:	0249      	lsls	r1, r1, #9
 8000da6:	468c      	mov	ip, r1
 8000da8:	4462      	add	r2, ip
 8000daa:	0c31      	lsrs	r1, r6, #16
 8000dac:	188a      	adds	r2, r1, r2
 8000dae:	0431      	lsls	r1, r6, #16
 8000db0:	041e      	lsls	r6, r3, #16
 8000db2:	0c36      	lsrs	r6, r6, #16
 8000db4:	198e      	adds	r6, r1, r6
 8000db6:	4290      	cmp	r0, r2
 8000db8:	d302      	bcc.n	8000dc0 <__aeabi_ddiv+0x1ac>
 8000dba:	d112      	bne.n	8000de2 <__aeabi_ddiv+0x1ce>
 8000dbc:	42b5      	cmp	r5, r6
 8000dbe:	d210      	bcs.n	8000de2 <__aeabi_ddiv+0x1ce>
 8000dc0:	4643      	mov	r3, r8
 8000dc2:	1e59      	subs	r1, r3, #1
 8000dc4:	9b00      	ldr	r3, [sp, #0]
 8000dc6:	469c      	mov	ip, r3
 8000dc8:	4465      	add	r5, ip
 8000dca:	001f      	movs	r7, r3
 8000dcc:	429d      	cmp	r5, r3
 8000dce:	419b      	sbcs	r3, r3
 8000dd0:	425b      	negs	r3, r3
 8000dd2:	191b      	adds	r3, r3, r4
 8000dd4:	18c0      	adds	r0, r0, r3
 8000dd6:	4284      	cmp	r4, r0
 8000dd8:	d200      	bcs.n	8000ddc <__aeabi_ddiv+0x1c8>
 8000dda:	e1a0      	b.n	800111e <__aeabi_ddiv+0x50a>
 8000ddc:	d100      	bne.n	8000de0 <__aeabi_ddiv+0x1cc>
 8000dde:	e19b      	b.n	8001118 <__aeabi_ddiv+0x504>
 8000de0:	4688      	mov	r8, r1
 8000de2:	1bae      	subs	r6, r5, r6
 8000de4:	42b5      	cmp	r5, r6
 8000de6:	41ad      	sbcs	r5, r5
 8000de8:	1a80      	subs	r0, r0, r2
 8000dea:	426d      	negs	r5, r5
 8000dec:	1b40      	subs	r0, r0, r5
 8000dee:	4284      	cmp	r4, r0
 8000df0:	d100      	bne.n	8000df4 <__aeabi_ddiv+0x1e0>
 8000df2:	e1d5      	b.n	80011a0 <__aeabi_ddiv+0x58c>
 8000df4:	4649      	mov	r1, r9
 8000df6:	f7ff fa0d 	bl	8000214 <__aeabi_uidivmod>
 8000dfa:	9a01      	ldr	r2, [sp, #4]
 8000dfc:	040b      	lsls	r3, r1, #16
 8000dfe:	4342      	muls	r2, r0
 8000e00:	0c31      	lsrs	r1, r6, #16
 8000e02:	0005      	movs	r5, r0
 8000e04:	4319      	orrs	r1, r3
 8000e06:	428a      	cmp	r2, r1
 8000e08:	d900      	bls.n	8000e0c <__aeabi_ddiv+0x1f8>
 8000e0a:	e16c      	b.n	80010e6 <__aeabi_ddiv+0x4d2>
 8000e0c:	1a88      	subs	r0, r1, r2
 8000e0e:	4649      	mov	r1, r9
 8000e10:	f7ff fa00 	bl	8000214 <__aeabi_uidivmod>
 8000e14:	9a01      	ldr	r2, [sp, #4]
 8000e16:	0436      	lsls	r6, r6, #16
 8000e18:	4342      	muls	r2, r0
 8000e1a:	0409      	lsls	r1, r1, #16
 8000e1c:	0c36      	lsrs	r6, r6, #16
 8000e1e:	0003      	movs	r3, r0
 8000e20:	430e      	orrs	r6, r1
 8000e22:	42b2      	cmp	r2, r6
 8000e24:	d900      	bls.n	8000e28 <__aeabi_ddiv+0x214>
 8000e26:	e153      	b.n	80010d0 <__aeabi_ddiv+0x4bc>
 8000e28:	9803      	ldr	r0, [sp, #12]
 8000e2a:	1ab6      	subs	r6, r6, r2
 8000e2c:	0002      	movs	r2, r0
 8000e2e:	042d      	lsls	r5, r5, #16
 8000e30:	431d      	orrs	r5, r3
 8000e32:	9f02      	ldr	r7, [sp, #8]
 8000e34:	042b      	lsls	r3, r5, #16
 8000e36:	0c1b      	lsrs	r3, r3, #16
 8000e38:	435a      	muls	r2, r3
 8000e3a:	437b      	muls	r3, r7
 8000e3c:	469c      	mov	ip, r3
 8000e3e:	0c29      	lsrs	r1, r5, #16
 8000e40:	4348      	muls	r0, r1
 8000e42:	0c13      	lsrs	r3, r2, #16
 8000e44:	4484      	add	ip, r0
 8000e46:	4463      	add	r3, ip
 8000e48:	4379      	muls	r1, r7
 8000e4a:	4298      	cmp	r0, r3
 8000e4c:	d903      	bls.n	8000e56 <__aeabi_ddiv+0x242>
 8000e4e:	2080      	movs	r0, #128	; 0x80
 8000e50:	0240      	lsls	r0, r0, #9
 8000e52:	4684      	mov	ip, r0
 8000e54:	4461      	add	r1, ip
 8000e56:	0c18      	lsrs	r0, r3, #16
 8000e58:	0412      	lsls	r2, r2, #16
 8000e5a:	041b      	lsls	r3, r3, #16
 8000e5c:	0c12      	lsrs	r2, r2, #16
 8000e5e:	1841      	adds	r1, r0, r1
 8000e60:	189b      	adds	r3, r3, r2
 8000e62:	428e      	cmp	r6, r1
 8000e64:	d200      	bcs.n	8000e68 <__aeabi_ddiv+0x254>
 8000e66:	e0ff      	b.n	8001068 <__aeabi_ddiv+0x454>
 8000e68:	d100      	bne.n	8000e6c <__aeabi_ddiv+0x258>
 8000e6a:	e0fa      	b.n	8001062 <__aeabi_ddiv+0x44e>
 8000e6c:	2301      	movs	r3, #1
 8000e6e:	431d      	orrs	r5, r3
 8000e70:	4a49      	ldr	r2, [pc, #292]	; (8000f98 <__aeabi_ddiv+0x384>)
 8000e72:	445a      	add	r2, fp
 8000e74:	2a00      	cmp	r2, #0
 8000e76:	dc00      	bgt.n	8000e7a <__aeabi_ddiv+0x266>
 8000e78:	e0aa      	b.n	8000fd0 <__aeabi_ddiv+0x3bc>
 8000e7a:	076b      	lsls	r3, r5, #29
 8000e7c:	d000      	beq.n	8000e80 <__aeabi_ddiv+0x26c>
 8000e7e:	e13d      	b.n	80010fc <__aeabi_ddiv+0x4e8>
 8000e80:	08ed      	lsrs	r5, r5, #3
 8000e82:	4643      	mov	r3, r8
 8000e84:	01db      	lsls	r3, r3, #7
 8000e86:	d506      	bpl.n	8000e96 <__aeabi_ddiv+0x282>
 8000e88:	4642      	mov	r2, r8
 8000e8a:	4b44      	ldr	r3, [pc, #272]	; (8000f9c <__aeabi_ddiv+0x388>)
 8000e8c:	401a      	ands	r2, r3
 8000e8e:	4690      	mov	r8, r2
 8000e90:	2280      	movs	r2, #128	; 0x80
 8000e92:	00d2      	lsls	r2, r2, #3
 8000e94:	445a      	add	r2, fp
 8000e96:	4b42      	ldr	r3, [pc, #264]	; (8000fa0 <__aeabi_ddiv+0x38c>)
 8000e98:	429a      	cmp	r2, r3
 8000e9a:	dd00      	ble.n	8000e9e <__aeabi_ddiv+0x28a>
 8000e9c:	e71f      	b.n	8000cde <__aeabi_ddiv+0xca>
 8000e9e:	4643      	mov	r3, r8
 8000ea0:	075b      	lsls	r3, r3, #29
 8000ea2:	431d      	orrs	r5, r3
 8000ea4:	4643      	mov	r3, r8
 8000ea6:	0552      	lsls	r2, r2, #21
 8000ea8:	025c      	lsls	r4, r3, #9
 8000eaa:	0b24      	lsrs	r4, r4, #12
 8000eac:	0d53      	lsrs	r3, r2, #21
 8000eae:	e708      	b.n	8000cc2 <__aeabi_ddiv+0xae>
 8000eb0:	4652      	mov	r2, sl
 8000eb2:	4322      	orrs	r2, r4
 8000eb4:	d100      	bne.n	8000eb8 <__aeabi_ddiv+0x2a4>
 8000eb6:	e07b      	b.n	8000fb0 <__aeabi_ddiv+0x39c>
 8000eb8:	2c00      	cmp	r4, #0
 8000eba:	d100      	bne.n	8000ebe <__aeabi_ddiv+0x2aa>
 8000ebc:	e0fa      	b.n	80010b4 <__aeabi_ddiv+0x4a0>
 8000ebe:	0020      	movs	r0, r4
 8000ec0:	f001 f934 	bl	800212c <__clzsi2>
 8000ec4:	0002      	movs	r2, r0
 8000ec6:	3a0b      	subs	r2, #11
 8000ec8:	231d      	movs	r3, #29
 8000eca:	0001      	movs	r1, r0
 8000ecc:	1a9b      	subs	r3, r3, r2
 8000ece:	4652      	mov	r2, sl
 8000ed0:	3908      	subs	r1, #8
 8000ed2:	40da      	lsrs	r2, r3
 8000ed4:	408c      	lsls	r4, r1
 8000ed6:	4314      	orrs	r4, r2
 8000ed8:	4652      	mov	r2, sl
 8000eda:	408a      	lsls	r2, r1
 8000edc:	4b31      	ldr	r3, [pc, #196]	; (8000fa4 <__aeabi_ddiv+0x390>)
 8000ede:	4458      	add	r0, fp
 8000ee0:	469b      	mov	fp, r3
 8000ee2:	4483      	add	fp, r0
 8000ee4:	2000      	movs	r0, #0
 8000ee6:	e6d5      	b.n	8000c94 <__aeabi_ddiv+0x80>
 8000ee8:	464b      	mov	r3, r9
 8000eea:	4323      	orrs	r3, r4
 8000eec:	4698      	mov	r8, r3
 8000eee:	d044      	beq.n	8000f7a <__aeabi_ddiv+0x366>
 8000ef0:	2c00      	cmp	r4, #0
 8000ef2:	d100      	bne.n	8000ef6 <__aeabi_ddiv+0x2e2>
 8000ef4:	e0ce      	b.n	8001094 <__aeabi_ddiv+0x480>
 8000ef6:	0020      	movs	r0, r4
 8000ef8:	f001 f918 	bl	800212c <__clzsi2>
 8000efc:	0001      	movs	r1, r0
 8000efe:	0002      	movs	r2, r0
 8000f00:	390b      	subs	r1, #11
 8000f02:	231d      	movs	r3, #29
 8000f04:	1a5b      	subs	r3, r3, r1
 8000f06:	4649      	mov	r1, r9
 8000f08:	0010      	movs	r0, r2
 8000f0a:	40d9      	lsrs	r1, r3
 8000f0c:	3808      	subs	r0, #8
 8000f0e:	4084      	lsls	r4, r0
 8000f10:	000b      	movs	r3, r1
 8000f12:	464d      	mov	r5, r9
 8000f14:	4323      	orrs	r3, r4
 8000f16:	4698      	mov	r8, r3
 8000f18:	4085      	lsls	r5, r0
 8000f1a:	4823      	ldr	r0, [pc, #140]	; (8000fa8 <__aeabi_ddiv+0x394>)
 8000f1c:	1a83      	subs	r3, r0, r2
 8000f1e:	469b      	mov	fp, r3
 8000f20:	2300      	movs	r3, #0
 8000f22:	4699      	mov	r9, r3
 8000f24:	9300      	str	r3, [sp, #0]
 8000f26:	e69a      	b.n	8000c5e <__aeabi_ddiv+0x4a>
 8000f28:	464b      	mov	r3, r9
 8000f2a:	4323      	orrs	r3, r4
 8000f2c:	4698      	mov	r8, r3
 8000f2e:	d11d      	bne.n	8000f6c <__aeabi_ddiv+0x358>
 8000f30:	2308      	movs	r3, #8
 8000f32:	4699      	mov	r9, r3
 8000f34:	3b06      	subs	r3, #6
 8000f36:	2500      	movs	r5, #0
 8000f38:	4683      	mov	fp, r0
 8000f3a:	9300      	str	r3, [sp, #0]
 8000f3c:	e68f      	b.n	8000c5e <__aeabi_ddiv+0x4a>
 8000f3e:	4652      	mov	r2, sl
 8000f40:	4322      	orrs	r2, r4
 8000f42:	d109      	bne.n	8000f58 <__aeabi_ddiv+0x344>
 8000f44:	2302      	movs	r3, #2
 8000f46:	4649      	mov	r1, r9
 8000f48:	4319      	orrs	r1, r3
 8000f4a:	4b18      	ldr	r3, [pc, #96]	; (8000fac <__aeabi_ddiv+0x398>)
 8000f4c:	4689      	mov	r9, r1
 8000f4e:	469c      	mov	ip, r3
 8000f50:	2400      	movs	r4, #0
 8000f52:	2002      	movs	r0, #2
 8000f54:	44e3      	add	fp, ip
 8000f56:	e69d      	b.n	8000c94 <__aeabi_ddiv+0x80>
 8000f58:	2303      	movs	r3, #3
 8000f5a:	464a      	mov	r2, r9
 8000f5c:	431a      	orrs	r2, r3
 8000f5e:	4b13      	ldr	r3, [pc, #76]	; (8000fac <__aeabi_ddiv+0x398>)
 8000f60:	4691      	mov	r9, r2
 8000f62:	469c      	mov	ip, r3
 8000f64:	4652      	mov	r2, sl
 8000f66:	2003      	movs	r0, #3
 8000f68:	44e3      	add	fp, ip
 8000f6a:	e693      	b.n	8000c94 <__aeabi_ddiv+0x80>
 8000f6c:	230c      	movs	r3, #12
 8000f6e:	4699      	mov	r9, r3
 8000f70:	3b09      	subs	r3, #9
 8000f72:	46a0      	mov	r8, r4
 8000f74:	4683      	mov	fp, r0
 8000f76:	9300      	str	r3, [sp, #0]
 8000f78:	e671      	b.n	8000c5e <__aeabi_ddiv+0x4a>
 8000f7a:	2304      	movs	r3, #4
 8000f7c:	4699      	mov	r9, r3
 8000f7e:	2300      	movs	r3, #0
 8000f80:	469b      	mov	fp, r3
 8000f82:	3301      	adds	r3, #1
 8000f84:	2500      	movs	r5, #0
 8000f86:	9300      	str	r3, [sp, #0]
 8000f88:	e669      	b.n	8000c5e <__aeabi_ddiv+0x4a>
 8000f8a:	46c0      	nop			; (mov r8, r8)
 8000f8c:	000007ff 	.word	0x000007ff
 8000f90:	fffffc01 	.word	0xfffffc01
 8000f94:	08007ee8 	.word	0x08007ee8
 8000f98:	000003ff 	.word	0x000003ff
 8000f9c:	feffffff 	.word	0xfeffffff
 8000fa0:	000007fe 	.word	0x000007fe
 8000fa4:	000003f3 	.word	0x000003f3
 8000fa8:	fffffc0d 	.word	0xfffffc0d
 8000fac:	fffff801 	.word	0xfffff801
 8000fb0:	4649      	mov	r1, r9
 8000fb2:	2301      	movs	r3, #1
 8000fb4:	4319      	orrs	r1, r3
 8000fb6:	4689      	mov	r9, r1
 8000fb8:	2400      	movs	r4, #0
 8000fba:	2001      	movs	r0, #1
 8000fbc:	e66a      	b.n	8000c94 <__aeabi_ddiv+0x80>
 8000fbe:	2300      	movs	r3, #0
 8000fc0:	2480      	movs	r4, #128	; 0x80
 8000fc2:	469a      	mov	sl, r3
 8000fc4:	2500      	movs	r5, #0
 8000fc6:	4b8a      	ldr	r3, [pc, #552]	; (80011f0 <__aeabi_ddiv+0x5dc>)
 8000fc8:	0324      	lsls	r4, r4, #12
 8000fca:	e67a      	b.n	8000cc2 <__aeabi_ddiv+0xae>
 8000fcc:	2501      	movs	r5, #1
 8000fce:	426d      	negs	r5, r5
 8000fd0:	2301      	movs	r3, #1
 8000fd2:	1a9b      	subs	r3, r3, r2
 8000fd4:	2b38      	cmp	r3, #56	; 0x38
 8000fd6:	dd00      	ble.n	8000fda <__aeabi_ddiv+0x3c6>
 8000fd8:	e670      	b.n	8000cbc <__aeabi_ddiv+0xa8>
 8000fda:	2b1f      	cmp	r3, #31
 8000fdc:	dc00      	bgt.n	8000fe0 <__aeabi_ddiv+0x3cc>
 8000fde:	e0bf      	b.n	8001160 <__aeabi_ddiv+0x54c>
 8000fe0:	211f      	movs	r1, #31
 8000fe2:	4249      	negs	r1, r1
 8000fe4:	1a8a      	subs	r2, r1, r2
 8000fe6:	4641      	mov	r1, r8
 8000fe8:	40d1      	lsrs	r1, r2
 8000fea:	000a      	movs	r2, r1
 8000fec:	2b20      	cmp	r3, #32
 8000fee:	d004      	beq.n	8000ffa <__aeabi_ddiv+0x3e6>
 8000ff0:	4641      	mov	r1, r8
 8000ff2:	4b80      	ldr	r3, [pc, #512]	; (80011f4 <__aeabi_ddiv+0x5e0>)
 8000ff4:	445b      	add	r3, fp
 8000ff6:	4099      	lsls	r1, r3
 8000ff8:	430d      	orrs	r5, r1
 8000ffa:	1e6b      	subs	r3, r5, #1
 8000ffc:	419d      	sbcs	r5, r3
 8000ffe:	2307      	movs	r3, #7
 8001000:	432a      	orrs	r2, r5
 8001002:	001d      	movs	r5, r3
 8001004:	2400      	movs	r4, #0
 8001006:	4015      	ands	r5, r2
 8001008:	4213      	tst	r3, r2
 800100a:	d100      	bne.n	800100e <__aeabi_ddiv+0x3fa>
 800100c:	e0d4      	b.n	80011b8 <__aeabi_ddiv+0x5a4>
 800100e:	210f      	movs	r1, #15
 8001010:	2300      	movs	r3, #0
 8001012:	4011      	ands	r1, r2
 8001014:	2904      	cmp	r1, #4
 8001016:	d100      	bne.n	800101a <__aeabi_ddiv+0x406>
 8001018:	e0cb      	b.n	80011b2 <__aeabi_ddiv+0x59e>
 800101a:	1d11      	adds	r1, r2, #4
 800101c:	4291      	cmp	r1, r2
 800101e:	4192      	sbcs	r2, r2
 8001020:	4252      	negs	r2, r2
 8001022:	189b      	adds	r3, r3, r2
 8001024:	000a      	movs	r2, r1
 8001026:	0219      	lsls	r1, r3, #8
 8001028:	d400      	bmi.n	800102c <__aeabi_ddiv+0x418>
 800102a:	e0c2      	b.n	80011b2 <__aeabi_ddiv+0x59e>
 800102c:	2301      	movs	r3, #1
 800102e:	2400      	movs	r4, #0
 8001030:	2500      	movs	r5, #0
 8001032:	e646      	b.n	8000cc2 <__aeabi_ddiv+0xae>
 8001034:	2380      	movs	r3, #128	; 0x80
 8001036:	4641      	mov	r1, r8
 8001038:	031b      	lsls	r3, r3, #12
 800103a:	4219      	tst	r1, r3
 800103c:	d008      	beq.n	8001050 <__aeabi_ddiv+0x43c>
 800103e:	421c      	tst	r4, r3
 8001040:	d106      	bne.n	8001050 <__aeabi_ddiv+0x43c>
 8001042:	431c      	orrs	r4, r3
 8001044:	0324      	lsls	r4, r4, #12
 8001046:	46ba      	mov	sl, r7
 8001048:	0015      	movs	r5, r2
 800104a:	4b69      	ldr	r3, [pc, #420]	; (80011f0 <__aeabi_ddiv+0x5dc>)
 800104c:	0b24      	lsrs	r4, r4, #12
 800104e:	e638      	b.n	8000cc2 <__aeabi_ddiv+0xae>
 8001050:	2480      	movs	r4, #128	; 0x80
 8001052:	4643      	mov	r3, r8
 8001054:	0324      	lsls	r4, r4, #12
 8001056:	431c      	orrs	r4, r3
 8001058:	0324      	lsls	r4, r4, #12
 800105a:	46b2      	mov	sl, r6
 800105c:	4b64      	ldr	r3, [pc, #400]	; (80011f0 <__aeabi_ddiv+0x5dc>)
 800105e:	0b24      	lsrs	r4, r4, #12
 8001060:	e62f      	b.n	8000cc2 <__aeabi_ddiv+0xae>
 8001062:	2b00      	cmp	r3, #0
 8001064:	d100      	bne.n	8001068 <__aeabi_ddiv+0x454>
 8001066:	e703      	b.n	8000e70 <__aeabi_ddiv+0x25c>
 8001068:	19a6      	adds	r6, r4, r6
 800106a:	1e68      	subs	r0, r5, #1
 800106c:	42a6      	cmp	r6, r4
 800106e:	d200      	bcs.n	8001072 <__aeabi_ddiv+0x45e>
 8001070:	e08d      	b.n	800118e <__aeabi_ddiv+0x57a>
 8001072:	428e      	cmp	r6, r1
 8001074:	d200      	bcs.n	8001078 <__aeabi_ddiv+0x464>
 8001076:	e0a3      	b.n	80011c0 <__aeabi_ddiv+0x5ac>
 8001078:	d100      	bne.n	800107c <__aeabi_ddiv+0x468>
 800107a:	e0b3      	b.n	80011e4 <__aeabi_ddiv+0x5d0>
 800107c:	0005      	movs	r5, r0
 800107e:	e6f5      	b.n	8000e6c <__aeabi_ddiv+0x258>
 8001080:	42aa      	cmp	r2, r5
 8001082:	d900      	bls.n	8001086 <__aeabi_ddiv+0x472>
 8001084:	e639      	b.n	8000cfa <__aeabi_ddiv+0xe6>
 8001086:	4643      	mov	r3, r8
 8001088:	07de      	lsls	r6, r3, #31
 800108a:	0858      	lsrs	r0, r3, #1
 800108c:	086b      	lsrs	r3, r5, #1
 800108e:	431e      	orrs	r6, r3
 8001090:	07ed      	lsls	r5, r5, #31
 8001092:	e639      	b.n	8000d08 <__aeabi_ddiv+0xf4>
 8001094:	4648      	mov	r0, r9
 8001096:	f001 f849 	bl	800212c <__clzsi2>
 800109a:	0001      	movs	r1, r0
 800109c:	0002      	movs	r2, r0
 800109e:	3115      	adds	r1, #21
 80010a0:	3220      	adds	r2, #32
 80010a2:	291c      	cmp	r1, #28
 80010a4:	dc00      	bgt.n	80010a8 <__aeabi_ddiv+0x494>
 80010a6:	e72c      	b.n	8000f02 <__aeabi_ddiv+0x2ee>
 80010a8:	464b      	mov	r3, r9
 80010aa:	3808      	subs	r0, #8
 80010ac:	4083      	lsls	r3, r0
 80010ae:	2500      	movs	r5, #0
 80010b0:	4698      	mov	r8, r3
 80010b2:	e732      	b.n	8000f1a <__aeabi_ddiv+0x306>
 80010b4:	f001 f83a 	bl	800212c <__clzsi2>
 80010b8:	0003      	movs	r3, r0
 80010ba:	001a      	movs	r2, r3
 80010bc:	3215      	adds	r2, #21
 80010be:	3020      	adds	r0, #32
 80010c0:	2a1c      	cmp	r2, #28
 80010c2:	dc00      	bgt.n	80010c6 <__aeabi_ddiv+0x4b2>
 80010c4:	e700      	b.n	8000ec8 <__aeabi_ddiv+0x2b4>
 80010c6:	4654      	mov	r4, sl
 80010c8:	3b08      	subs	r3, #8
 80010ca:	2200      	movs	r2, #0
 80010cc:	409c      	lsls	r4, r3
 80010ce:	e705      	b.n	8000edc <__aeabi_ddiv+0x2c8>
 80010d0:	1936      	adds	r6, r6, r4
 80010d2:	3b01      	subs	r3, #1
 80010d4:	42b4      	cmp	r4, r6
 80010d6:	d900      	bls.n	80010da <__aeabi_ddiv+0x4c6>
 80010d8:	e6a6      	b.n	8000e28 <__aeabi_ddiv+0x214>
 80010da:	42b2      	cmp	r2, r6
 80010dc:	d800      	bhi.n	80010e0 <__aeabi_ddiv+0x4cc>
 80010de:	e6a3      	b.n	8000e28 <__aeabi_ddiv+0x214>
 80010e0:	1e83      	subs	r3, r0, #2
 80010e2:	1936      	adds	r6, r6, r4
 80010e4:	e6a0      	b.n	8000e28 <__aeabi_ddiv+0x214>
 80010e6:	1909      	adds	r1, r1, r4
 80010e8:	3d01      	subs	r5, #1
 80010ea:	428c      	cmp	r4, r1
 80010ec:	d900      	bls.n	80010f0 <__aeabi_ddiv+0x4dc>
 80010ee:	e68d      	b.n	8000e0c <__aeabi_ddiv+0x1f8>
 80010f0:	428a      	cmp	r2, r1
 80010f2:	d800      	bhi.n	80010f6 <__aeabi_ddiv+0x4e2>
 80010f4:	e68a      	b.n	8000e0c <__aeabi_ddiv+0x1f8>
 80010f6:	1e85      	subs	r5, r0, #2
 80010f8:	1909      	adds	r1, r1, r4
 80010fa:	e687      	b.n	8000e0c <__aeabi_ddiv+0x1f8>
 80010fc:	230f      	movs	r3, #15
 80010fe:	402b      	ands	r3, r5
 8001100:	2b04      	cmp	r3, #4
 8001102:	d100      	bne.n	8001106 <__aeabi_ddiv+0x4f2>
 8001104:	e6bc      	b.n	8000e80 <__aeabi_ddiv+0x26c>
 8001106:	2305      	movs	r3, #5
 8001108:	425b      	negs	r3, r3
 800110a:	42ab      	cmp	r3, r5
 800110c:	419b      	sbcs	r3, r3
 800110e:	3504      	adds	r5, #4
 8001110:	425b      	negs	r3, r3
 8001112:	08ed      	lsrs	r5, r5, #3
 8001114:	4498      	add	r8, r3
 8001116:	e6b4      	b.n	8000e82 <__aeabi_ddiv+0x26e>
 8001118:	42af      	cmp	r7, r5
 800111a:	d900      	bls.n	800111e <__aeabi_ddiv+0x50a>
 800111c:	e660      	b.n	8000de0 <__aeabi_ddiv+0x1cc>
 800111e:	4282      	cmp	r2, r0
 8001120:	d804      	bhi.n	800112c <__aeabi_ddiv+0x518>
 8001122:	d000      	beq.n	8001126 <__aeabi_ddiv+0x512>
 8001124:	e65c      	b.n	8000de0 <__aeabi_ddiv+0x1cc>
 8001126:	42ae      	cmp	r6, r5
 8001128:	d800      	bhi.n	800112c <__aeabi_ddiv+0x518>
 800112a:	e659      	b.n	8000de0 <__aeabi_ddiv+0x1cc>
 800112c:	2302      	movs	r3, #2
 800112e:	425b      	negs	r3, r3
 8001130:	469c      	mov	ip, r3
 8001132:	9b00      	ldr	r3, [sp, #0]
 8001134:	44e0      	add	r8, ip
 8001136:	469c      	mov	ip, r3
 8001138:	4465      	add	r5, ip
 800113a:	429d      	cmp	r5, r3
 800113c:	419b      	sbcs	r3, r3
 800113e:	425b      	negs	r3, r3
 8001140:	191b      	adds	r3, r3, r4
 8001142:	18c0      	adds	r0, r0, r3
 8001144:	e64d      	b.n	8000de2 <__aeabi_ddiv+0x1ce>
 8001146:	428a      	cmp	r2, r1
 8001148:	d800      	bhi.n	800114c <__aeabi_ddiv+0x538>
 800114a:	e60e      	b.n	8000d6a <__aeabi_ddiv+0x156>
 800114c:	1e83      	subs	r3, r0, #2
 800114e:	1909      	adds	r1, r1, r4
 8001150:	e60b      	b.n	8000d6a <__aeabi_ddiv+0x156>
 8001152:	428a      	cmp	r2, r1
 8001154:	d800      	bhi.n	8001158 <__aeabi_ddiv+0x544>
 8001156:	e5f4      	b.n	8000d42 <__aeabi_ddiv+0x12e>
 8001158:	1e83      	subs	r3, r0, #2
 800115a:	4698      	mov	r8, r3
 800115c:	1909      	adds	r1, r1, r4
 800115e:	e5f0      	b.n	8000d42 <__aeabi_ddiv+0x12e>
 8001160:	4925      	ldr	r1, [pc, #148]	; (80011f8 <__aeabi_ddiv+0x5e4>)
 8001162:	0028      	movs	r0, r5
 8001164:	4459      	add	r1, fp
 8001166:	408d      	lsls	r5, r1
 8001168:	4642      	mov	r2, r8
 800116a:	408a      	lsls	r2, r1
 800116c:	1e69      	subs	r1, r5, #1
 800116e:	418d      	sbcs	r5, r1
 8001170:	4641      	mov	r1, r8
 8001172:	40d8      	lsrs	r0, r3
 8001174:	40d9      	lsrs	r1, r3
 8001176:	4302      	orrs	r2, r0
 8001178:	432a      	orrs	r2, r5
 800117a:	000b      	movs	r3, r1
 800117c:	0751      	lsls	r1, r2, #29
 800117e:	d100      	bne.n	8001182 <__aeabi_ddiv+0x56e>
 8001180:	e751      	b.n	8001026 <__aeabi_ddiv+0x412>
 8001182:	210f      	movs	r1, #15
 8001184:	4011      	ands	r1, r2
 8001186:	2904      	cmp	r1, #4
 8001188:	d000      	beq.n	800118c <__aeabi_ddiv+0x578>
 800118a:	e746      	b.n	800101a <__aeabi_ddiv+0x406>
 800118c:	e74b      	b.n	8001026 <__aeabi_ddiv+0x412>
 800118e:	0005      	movs	r5, r0
 8001190:	428e      	cmp	r6, r1
 8001192:	d000      	beq.n	8001196 <__aeabi_ddiv+0x582>
 8001194:	e66a      	b.n	8000e6c <__aeabi_ddiv+0x258>
 8001196:	9a00      	ldr	r2, [sp, #0]
 8001198:	4293      	cmp	r3, r2
 800119a:	d000      	beq.n	800119e <__aeabi_ddiv+0x58a>
 800119c:	e666      	b.n	8000e6c <__aeabi_ddiv+0x258>
 800119e:	e667      	b.n	8000e70 <__aeabi_ddiv+0x25c>
 80011a0:	4a16      	ldr	r2, [pc, #88]	; (80011fc <__aeabi_ddiv+0x5e8>)
 80011a2:	445a      	add	r2, fp
 80011a4:	2a00      	cmp	r2, #0
 80011a6:	dc00      	bgt.n	80011aa <__aeabi_ddiv+0x596>
 80011a8:	e710      	b.n	8000fcc <__aeabi_ddiv+0x3b8>
 80011aa:	2301      	movs	r3, #1
 80011ac:	2500      	movs	r5, #0
 80011ae:	4498      	add	r8, r3
 80011b0:	e667      	b.n	8000e82 <__aeabi_ddiv+0x26e>
 80011b2:	075d      	lsls	r5, r3, #29
 80011b4:	025b      	lsls	r3, r3, #9
 80011b6:	0b1c      	lsrs	r4, r3, #12
 80011b8:	08d2      	lsrs	r2, r2, #3
 80011ba:	2300      	movs	r3, #0
 80011bc:	4315      	orrs	r5, r2
 80011be:	e580      	b.n	8000cc2 <__aeabi_ddiv+0xae>
 80011c0:	9800      	ldr	r0, [sp, #0]
 80011c2:	3d02      	subs	r5, #2
 80011c4:	0042      	lsls	r2, r0, #1
 80011c6:	4282      	cmp	r2, r0
 80011c8:	41bf      	sbcs	r7, r7
 80011ca:	427f      	negs	r7, r7
 80011cc:	193c      	adds	r4, r7, r4
 80011ce:	1936      	adds	r6, r6, r4
 80011d0:	9200      	str	r2, [sp, #0]
 80011d2:	e7dd      	b.n	8001190 <__aeabi_ddiv+0x57c>
 80011d4:	2480      	movs	r4, #128	; 0x80
 80011d6:	4643      	mov	r3, r8
 80011d8:	0324      	lsls	r4, r4, #12
 80011da:	431c      	orrs	r4, r3
 80011dc:	0324      	lsls	r4, r4, #12
 80011de:	4b04      	ldr	r3, [pc, #16]	; (80011f0 <__aeabi_ddiv+0x5dc>)
 80011e0:	0b24      	lsrs	r4, r4, #12
 80011e2:	e56e      	b.n	8000cc2 <__aeabi_ddiv+0xae>
 80011e4:	9a00      	ldr	r2, [sp, #0]
 80011e6:	429a      	cmp	r2, r3
 80011e8:	d3ea      	bcc.n	80011c0 <__aeabi_ddiv+0x5ac>
 80011ea:	0005      	movs	r5, r0
 80011ec:	e7d3      	b.n	8001196 <__aeabi_ddiv+0x582>
 80011ee:	46c0      	nop			; (mov r8, r8)
 80011f0:	000007ff 	.word	0x000007ff
 80011f4:	0000043e 	.word	0x0000043e
 80011f8:	0000041e 	.word	0x0000041e
 80011fc:	000003ff 	.word	0x000003ff

08001200 <__eqdf2>:
 8001200:	b5f0      	push	{r4, r5, r6, r7, lr}
 8001202:	464e      	mov	r6, r9
 8001204:	4645      	mov	r5, r8
 8001206:	46de      	mov	lr, fp
 8001208:	4657      	mov	r7, sl
 800120a:	4690      	mov	r8, r2
 800120c:	b5e0      	push	{r5, r6, r7, lr}
 800120e:	0017      	movs	r7, r2
 8001210:	031a      	lsls	r2, r3, #12
 8001212:	0b12      	lsrs	r2, r2, #12
 8001214:	0005      	movs	r5, r0
 8001216:	4684      	mov	ip, r0
 8001218:	4819      	ldr	r0, [pc, #100]	; (8001280 <__eqdf2+0x80>)
 800121a:	030e      	lsls	r6, r1, #12
 800121c:	004c      	lsls	r4, r1, #1
 800121e:	4691      	mov	r9, r2
 8001220:	005a      	lsls	r2, r3, #1
 8001222:	0fdb      	lsrs	r3, r3, #31
 8001224:	469b      	mov	fp, r3
 8001226:	0b36      	lsrs	r6, r6, #12
 8001228:	0d64      	lsrs	r4, r4, #21
 800122a:	0fc9      	lsrs	r1, r1, #31
 800122c:	0d52      	lsrs	r2, r2, #21
 800122e:	4284      	cmp	r4, r0
 8001230:	d019      	beq.n	8001266 <__eqdf2+0x66>
 8001232:	4282      	cmp	r2, r0
 8001234:	d010      	beq.n	8001258 <__eqdf2+0x58>
 8001236:	2001      	movs	r0, #1
 8001238:	4294      	cmp	r4, r2
 800123a:	d10e      	bne.n	800125a <__eqdf2+0x5a>
 800123c:	454e      	cmp	r6, r9
 800123e:	d10c      	bne.n	800125a <__eqdf2+0x5a>
 8001240:	2001      	movs	r0, #1
 8001242:	45c4      	cmp	ip, r8
 8001244:	d109      	bne.n	800125a <__eqdf2+0x5a>
 8001246:	4559      	cmp	r1, fp
 8001248:	d017      	beq.n	800127a <__eqdf2+0x7a>
 800124a:	2c00      	cmp	r4, #0
 800124c:	d105      	bne.n	800125a <__eqdf2+0x5a>
 800124e:	0030      	movs	r0, r6
 8001250:	4328      	orrs	r0, r5
 8001252:	1e43      	subs	r3, r0, #1
 8001254:	4198      	sbcs	r0, r3
 8001256:	e000      	b.n	800125a <__eqdf2+0x5a>
 8001258:	2001      	movs	r0, #1
 800125a:	bcf0      	pop	{r4, r5, r6, r7}
 800125c:	46bb      	mov	fp, r7
 800125e:	46b2      	mov	sl, r6
 8001260:	46a9      	mov	r9, r5
 8001262:	46a0      	mov	r8, r4
 8001264:	bdf0      	pop	{r4, r5, r6, r7, pc}
 8001266:	0033      	movs	r3, r6
 8001268:	2001      	movs	r0, #1
 800126a:	432b      	orrs	r3, r5
 800126c:	d1f5      	bne.n	800125a <__eqdf2+0x5a>
 800126e:	42a2      	cmp	r2, r4
 8001270:	d1f3      	bne.n	800125a <__eqdf2+0x5a>
 8001272:	464b      	mov	r3, r9
 8001274:	433b      	orrs	r3, r7
 8001276:	d1f0      	bne.n	800125a <__eqdf2+0x5a>
 8001278:	e7e2      	b.n	8001240 <__eqdf2+0x40>
 800127a:	2000      	movs	r0, #0
 800127c:	e7ed      	b.n	800125a <__eqdf2+0x5a>
 800127e:	46c0      	nop			; (mov r8, r8)
 8001280:	000007ff 	.word	0x000007ff

08001284 <__gedf2>:
 8001284:	b5f0      	push	{r4, r5, r6, r7, lr}
 8001286:	4647      	mov	r7, r8
 8001288:	46ce      	mov	lr, r9
 800128a:	0004      	movs	r4, r0
 800128c:	0018      	movs	r0, r3
 800128e:	0016      	movs	r6, r2
 8001290:	031b      	lsls	r3, r3, #12
 8001292:	0b1b      	lsrs	r3, r3, #12
 8001294:	4d2d      	ldr	r5, [pc, #180]	; (800134c <__gedf2+0xc8>)
 8001296:	004a      	lsls	r2, r1, #1
 8001298:	4699      	mov	r9, r3
 800129a:	b580      	push	{r7, lr}
 800129c:	0043      	lsls	r3, r0, #1
 800129e:	030f      	lsls	r7, r1, #12
 80012a0:	46a4      	mov	ip, r4
 80012a2:	46b0      	mov	r8, r6
 80012a4:	0b3f      	lsrs	r7, r7, #12
 80012a6:	0d52      	lsrs	r2, r2, #21
 80012a8:	0fc9      	lsrs	r1, r1, #31
 80012aa:	0d5b      	lsrs	r3, r3, #21
 80012ac:	0fc0      	lsrs	r0, r0, #31
 80012ae:	42aa      	cmp	r2, r5
 80012b0:	d021      	beq.n	80012f6 <__gedf2+0x72>
 80012b2:	42ab      	cmp	r3, r5
 80012b4:	d013      	beq.n	80012de <__gedf2+0x5a>
 80012b6:	2a00      	cmp	r2, #0
 80012b8:	d122      	bne.n	8001300 <__gedf2+0x7c>
 80012ba:	433c      	orrs	r4, r7
 80012bc:	2b00      	cmp	r3, #0
 80012be:	d102      	bne.n	80012c6 <__gedf2+0x42>
 80012c0:	464d      	mov	r5, r9
 80012c2:	432e      	orrs	r6, r5
 80012c4:	d022      	beq.n	800130c <__gedf2+0x88>
 80012c6:	2c00      	cmp	r4, #0
 80012c8:	d010      	beq.n	80012ec <__gedf2+0x68>
 80012ca:	4281      	cmp	r1, r0
 80012cc:	d022      	beq.n	8001314 <__gedf2+0x90>
 80012ce:	2002      	movs	r0, #2
 80012d0:	3901      	subs	r1, #1
 80012d2:	4008      	ands	r0, r1
 80012d4:	3801      	subs	r0, #1
 80012d6:	bcc0      	pop	{r6, r7}
 80012d8:	46b9      	mov	r9, r7
 80012da:	46b0      	mov	r8, r6
 80012dc:	bdf0      	pop	{r4, r5, r6, r7, pc}
 80012de:	464d      	mov	r5, r9
 80012e0:	432e      	orrs	r6, r5
 80012e2:	d129      	bne.n	8001338 <__gedf2+0xb4>
 80012e4:	2a00      	cmp	r2, #0
 80012e6:	d1f0      	bne.n	80012ca <__gedf2+0x46>
 80012e8:	433c      	orrs	r4, r7
 80012ea:	d1ee      	bne.n	80012ca <__gedf2+0x46>
 80012ec:	2800      	cmp	r0, #0
 80012ee:	d1f2      	bne.n	80012d6 <__gedf2+0x52>
 80012f0:	2001      	movs	r0, #1
 80012f2:	4240      	negs	r0, r0
 80012f4:	e7ef      	b.n	80012d6 <__gedf2+0x52>
 80012f6:	003d      	movs	r5, r7
 80012f8:	4325      	orrs	r5, r4
 80012fa:	d11d      	bne.n	8001338 <__gedf2+0xb4>
 80012fc:	4293      	cmp	r3, r2
 80012fe:	d0ee      	beq.n	80012de <__gedf2+0x5a>
 8001300:	2b00      	cmp	r3, #0
 8001302:	d1e2      	bne.n	80012ca <__gedf2+0x46>
 8001304:	464c      	mov	r4, r9
 8001306:	4326      	orrs	r6, r4
 8001308:	d1df      	bne.n	80012ca <__gedf2+0x46>
 800130a:	e7e0      	b.n	80012ce <__gedf2+0x4a>
 800130c:	2000      	movs	r0, #0
 800130e:	2c00      	cmp	r4, #0
 8001310:	d0e1      	beq.n	80012d6 <__gedf2+0x52>
 8001312:	e7dc      	b.n	80012ce <__gedf2+0x4a>
 8001314:	429a      	cmp	r2, r3
 8001316:	dc0a      	bgt.n	800132e <__gedf2+0xaa>
 8001318:	dbe8      	blt.n	80012ec <__gedf2+0x68>
 800131a:	454f      	cmp	r7, r9
 800131c:	d8d7      	bhi.n	80012ce <__gedf2+0x4a>
 800131e:	d00e      	beq.n	800133e <__gedf2+0xba>
 8001320:	2000      	movs	r0, #0
 8001322:	454f      	cmp	r7, r9
 8001324:	d2d7      	bcs.n	80012d6 <__gedf2+0x52>
 8001326:	2900      	cmp	r1, #0
 8001328:	d0e2      	beq.n	80012f0 <__gedf2+0x6c>
 800132a:	0008      	movs	r0, r1
 800132c:	e7d3      	b.n	80012d6 <__gedf2+0x52>
 800132e:	4243      	negs	r3, r0
 8001330:	4158      	adcs	r0, r3
 8001332:	0040      	lsls	r0, r0, #1
 8001334:	3801      	subs	r0, #1
 8001336:	e7ce      	b.n	80012d6 <__gedf2+0x52>
 8001338:	2002      	movs	r0, #2
 800133a:	4240      	negs	r0, r0
 800133c:	e7cb      	b.n	80012d6 <__gedf2+0x52>
 800133e:	45c4      	cmp	ip, r8
 8001340:	d8c5      	bhi.n	80012ce <__gedf2+0x4a>
 8001342:	2000      	movs	r0, #0
 8001344:	45c4      	cmp	ip, r8
 8001346:	d2c6      	bcs.n	80012d6 <__gedf2+0x52>
 8001348:	e7ed      	b.n	8001326 <__gedf2+0xa2>
 800134a:	46c0      	nop			; (mov r8, r8)
 800134c:	000007ff 	.word	0x000007ff

08001350 <__ledf2>:
 8001350:	b5f0      	push	{r4, r5, r6, r7, lr}
 8001352:	4647      	mov	r7, r8
 8001354:	46ce      	mov	lr, r9
 8001356:	0004      	movs	r4, r0
 8001358:	0018      	movs	r0, r3
 800135a:	0016      	movs	r6, r2
 800135c:	031b      	lsls	r3, r3, #12
 800135e:	0b1b      	lsrs	r3, r3, #12
 8001360:	4d2c      	ldr	r5, [pc, #176]	; (8001414 <__ledf2+0xc4>)
 8001362:	004a      	lsls	r2, r1, #1
 8001364:	4699      	mov	r9, r3
 8001366:	b580      	push	{r7, lr}
 8001368:	0043      	lsls	r3, r0, #1
 800136a:	030f      	lsls	r7, r1, #12
 800136c:	46a4      	mov	ip, r4
 800136e:	46b0      	mov	r8, r6
 8001370:	0b3f      	lsrs	r7, r7, #12
 8001372:	0d52      	lsrs	r2, r2, #21
 8001374:	0fc9      	lsrs	r1, r1, #31
 8001376:	0d5b      	lsrs	r3, r3, #21
 8001378:	0fc0      	lsrs	r0, r0, #31
 800137a:	42aa      	cmp	r2, r5
 800137c:	d00d      	beq.n	800139a <__ledf2+0x4a>
 800137e:	42ab      	cmp	r3, r5
 8001380:	d010      	beq.n	80013a4 <__ledf2+0x54>
 8001382:	2a00      	cmp	r2, #0
 8001384:	d127      	bne.n	80013d6 <__ledf2+0x86>
 8001386:	433c      	orrs	r4, r7
 8001388:	2b00      	cmp	r3, #0
 800138a:	d111      	bne.n	80013b0 <__ledf2+0x60>
 800138c:	464d      	mov	r5, r9
 800138e:	432e      	orrs	r6, r5
 8001390:	d10e      	bne.n	80013b0 <__ledf2+0x60>
 8001392:	2000      	movs	r0, #0
 8001394:	2c00      	cmp	r4, #0
 8001396:	d015      	beq.n	80013c4 <__ledf2+0x74>
 8001398:	e00e      	b.n	80013b8 <__ledf2+0x68>
 800139a:	003d      	movs	r5, r7
 800139c:	4325      	orrs	r5, r4
 800139e:	d110      	bne.n	80013c2 <__ledf2+0x72>
 80013a0:	4293      	cmp	r3, r2
 80013a2:	d118      	bne.n	80013d6 <__ledf2+0x86>
 80013a4:	464d      	mov	r5, r9
 80013a6:	432e      	orrs	r6, r5
 80013a8:	d10b      	bne.n	80013c2 <__ledf2+0x72>
 80013aa:	2a00      	cmp	r2, #0
 80013ac:	d102      	bne.n	80013b4 <__ledf2+0x64>
 80013ae:	433c      	orrs	r4, r7
 80013b0:	2c00      	cmp	r4, #0
 80013b2:	d00b      	beq.n	80013cc <__ledf2+0x7c>
 80013b4:	4281      	cmp	r1, r0
 80013b6:	d014      	beq.n	80013e2 <__ledf2+0x92>
 80013b8:	2002      	movs	r0, #2
 80013ba:	3901      	subs	r1, #1
 80013bc:	4008      	ands	r0, r1
 80013be:	3801      	subs	r0, #1
 80013c0:	e000      	b.n	80013c4 <__ledf2+0x74>
 80013c2:	2002      	movs	r0, #2
 80013c4:	bcc0      	pop	{r6, r7}
 80013c6:	46b9      	mov	r9, r7
 80013c8:	46b0      	mov	r8, r6
 80013ca:	bdf0      	pop	{r4, r5, r6, r7, pc}
 80013cc:	2800      	cmp	r0, #0
 80013ce:	d1f9      	bne.n	80013c4 <__ledf2+0x74>
 80013d0:	2001      	movs	r0, #1
 80013d2:	4240      	negs	r0, r0
 80013d4:	e7f6      	b.n	80013c4 <__ledf2+0x74>
 80013d6:	2b00      	cmp	r3, #0
 80013d8:	d1ec      	bne.n	80013b4 <__ledf2+0x64>
 80013da:	464c      	mov	r4, r9
 80013dc:	4326      	orrs	r6, r4
 80013de:	d1e9      	bne.n	80013b4 <__ledf2+0x64>
 80013e0:	e7ea      	b.n	80013b8 <__ledf2+0x68>
 80013e2:	429a      	cmp	r2, r3
 80013e4:	dd04      	ble.n	80013f0 <__ledf2+0xa0>
 80013e6:	4243      	negs	r3, r0
 80013e8:	4158      	adcs	r0, r3
 80013ea:	0040      	lsls	r0, r0, #1
 80013ec:	3801      	subs	r0, #1
 80013ee:	e7e9      	b.n	80013c4 <__ledf2+0x74>
 80013f0:	429a      	cmp	r2, r3
 80013f2:	dbeb      	blt.n	80013cc <__ledf2+0x7c>
 80013f4:	454f      	cmp	r7, r9
 80013f6:	d8df      	bhi.n	80013b8 <__ledf2+0x68>
 80013f8:	d006      	beq.n	8001408 <__ledf2+0xb8>
 80013fa:	2000      	movs	r0, #0
 80013fc:	454f      	cmp	r7, r9
 80013fe:	d2e1      	bcs.n	80013c4 <__ledf2+0x74>
 8001400:	2900      	cmp	r1, #0
 8001402:	d0e5      	beq.n	80013d0 <__ledf2+0x80>
 8001404:	0008      	movs	r0, r1
 8001406:	e7dd      	b.n	80013c4 <__ledf2+0x74>
 8001408:	45c4      	cmp	ip, r8
 800140a:	d8d5      	bhi.n	80013b8 <__ledf2+0x68>
 800140c:	2000      	movs	r0, #0
 800140e:	45c4      	cmp	ip, r8
 8001410:	d2d8      	bcs.n	80013c4 <__ledf2+0x74>
 8001412:	e7f5      	b.n	8001400 <__ledf2+0xb0>
 8001414:	000007ff 	.word	0x000007ff

08001418 <__aeabi_dmul>:
 8001418:	b5f0      	push	{r4, r5, r6, r7, lr}
 800141a:	4657      	mov	r7, sl
 800141c:	464e      	mov	r6, r9
 800141e:	4645      	mov	r5, r8
 8001420:	46de      	mov	lr, fp
 8001422:	b5e0      	push	{r5, r6, r7, lr}
 8001424:	4698      	mov	r8, r3
 8001426:	030c      	lsls	r4, r1, #12
 8001428:	004b      	lsls	r3, r1, #1
 800142a:	0006      	movs	r6, r0
 800142c:	4692      	mov	sl, r2
 800142e:	b087      	sub	sp, #28
 8001430:	0b24      	lsrs	r4, r4, #12
 8001432:	0d5b      	lsrs	r3, r3, #21
 8001434:	0fcf      	lsrs	r7, r1, #31
 8001436:	2b00      	cmp	r3, #0
 8001438:	d100      	bne.n	800143c <__aeabi_dmul+0x24>
 800143a:	e15c      	b.n	80016f6 <__aeabi_dmul+0x2de>
 800143c:	4ad9      	ldr	r2, [pc, #868]	; (80017a4 <__aeabi_dmul+0x38c>)
 800143e:	4293      	cmp	r3, r2
 8001440:	d100      	bne.n	8001444 <__aeabi_dmul+0x2c>
 8001442:	e175      	b.n	8001730 <__aeabi_dmul+0x318>
 8001444:	0f42      	lsrs	r2, r0, #29
 8001446:	00e4      	lsls	r4, r4, #3
 8001448:	4314      	orrs	r4, r2
 800144a:	2280      	movs	r2, #128	; 0x80
 800144c:	0412      	lsls	r2, r2, #16
 800144e:	4314      	orrs	r4, r2
 8001450:	4ad5      	ldr	r2, [pc, #852]	; (80017a8 <__aeabi_dmul+0x390>)
 8001452:	00c5      	lsls	r5, r0, #3
 8001454:	4694      	mov	ip, r2
 8001456:	4463      	add	r3, ip
 8001458:	9300      	str	r3, [sp, #0]
 800145a:	2300      	movs	r3, #0
 800145c:	4699      	mov	r9, r3
 800145e:	469b      	mov	fp, r3
 8001460:	4643      	mov	r3, r8
 8001462:	4642      	mov	r2, r8
 8001464:	031e      	lsls	r6, r3, #12
 8001466:	0fd2      	lsrs	r2, r2, #31
 8001468:	005b      	lsls	r3, r3, #1
 800146a:	4650      	mov	r0, sl
 800146c:	4690      	mov	r8, r2
 800146e:	0b36      	lsrs	r6, r6, #12
 8001470:	0d5b      	lsrs	r3, r3, #21
 8001472:	d100      	bne.n	8001476 <__aeabi_dmul+0x5e>
 8001474:	e120      	b.n	80016b8 <__aeabi_dmul+0x2a0>
 8001476:	4acb      	ldr	r2, [pc, #812]	; (80017a4 <__aeabi_dmul+0x38c>)
 8001478:	4293      	cmp	r3, r2
 800147a:	d100      	bne.n	800147e <__aeabi_dmul+0x66>
 800147c:	e162      	b.n	8001744 <__aeabi_dmul+0x32c>
 800147e:	49ca      	ldr	r1, [pc, #808]	; (80017a8 <__aeabi_dmul+0x390>)
 8001480:	0f42      	lsrs	r2, r0, #29
 8001482:	468c      	mov	ip, r1
 8001484:	9900      	ldr	r1, [sp, #0]
 8001486:	4463      	add	r3, ip
 8001488:	00f6      	lsls	r6, r6, #3
 800148a:	468c      	mov	ip, r1
 800148c:	4316      	orrs	r6, r2
 800148e:	2280      	movs	r2, #128	; 0x80
 8001490:	449c      	add	ip, r3
 8001492:	0412      	lsls	r2, r2, #16
 8001494:	4663      	mov	r3, ip
 8001496:	4316      	orrs	r6, r2
 8001498:	00c2      	lsls	r2, r0, #3
 800149a:	2000      	movs	r0, #0
 800149c:	9300      	str	r3, [sp, #0]
 800149e:	9900      	ldr	r1, [sp, #0]
 80014a0:	4643      	mov	r3, r8
 80014a2:	3101      	adds	r1, #1
 80014a4:	468c      	mov	ip, r1
 80014a6:	4649      	mov	r1, r9
 80014a8:	407b      	eors	r3, r7
 80014aa:	9301      	str	r3, [sp, #4]
 80014ac:	290f      	cmp	r1, #15
 80014ae:	d826      	bhi.n	80014fe <__aeabi_dmul+0xe6>
 80014b0:	4bbe      	ldr	r3, [pc, #760]	; (80017ac <__aeabi_dmul+0x394>)
 80014b2:	0089      	lsls	r1, r1, #2
 80014b4:	5859      	ldr	r1, [r3, r1]
 80014b6:	468f      	mov	pc, r1
 80014b8:	4643      	mov	r3, r8
 80014ba:	9301      	str	r3, [sp, #4]
 80014bc:	0034      	movs	r4, r6
 80014be:	0015      	movs	r5, r2
 80014c0:	4683      	mov	fp, r0
 80014c2:	465b      	mov	r3, fp
 80014c4:	2b02      	cmp	r3, #2
 80014c6:	d016      	beq.n	80014f6 <__aeabi_dmul+0xde>
 80014c8:	2b03      	cmp	r3, #3
 80014ca:	d100      	bne.n	80014ce <__aeabi_dmul+0xb6>
 80014cc:	e203      	b.n	80018d6 <__aeabi_dmul+0x4be>
 80014ce:	2b01      	cmp	r3, #1
 80014d0:	d000      	beq.n	80014d4 <__aeabi_dmul+0xbc>
 80014d2:	e0cd      	b.n	8001670 <__aeabi_dmul+0x258>
 80014d4:	2200      	movs	r2, #0
 80014d6:	2400      	movs	r4, #0
 80014d8:	2500      	movs	r5, #0
 80014da:	9b01      	ldr	r3, [sp, #4]
 80014dc:	0512      	lsls	r2, r2, #20
 80014de:	4322      	orrs	r2, r4
 80014e0:	07db      	lsls	r3, r3, #31
 80014e2:	431a      	orrs	r2, r3
 80014e4:	0028      	movs	r0, r5
 80014e6:	0011      	movs	r1, r2
 80014e8:	b007      	add	sp, #28
 80014ea:	bcf0      	pop	{r4, r5, r6, r7}
 80014ec:	46bb      	mov	fp, r7
 80014ee:	46b2      	mov	sl, r6
 80014f0:	46a9      	mov	r9, r5
 80014f2:	46a0      	mov	r8, r4
 80014f4:	bdf0      	pop	{r4, r5, r6, r7, pc}
 80014f6:	2400      	movs	r4, #0
 80014f8:	2500      	movs	r5, #0
 80014fa:	4aaa      	ldr	r2, [pc, #680]	; (80017a4 <__aeabi_dmul+0x38c>)
 80014fc:	e7ed      	b.n	80014da <__aeabi_dmul+0xc2>
 80014fe:	0c28      	lsrs	r0, r5, #16
 8001500:	042d      	lsls	r5, r5, #16
 8001502:	0c2d      	lsrs	r5, r5, #16
 8001504:	002b      	movs	r3, r5
 8001506:	0c11      	lsrs	r1, r2, #16
 8001508:	0412      	lsls	r2, r2, #16
 800150a:	0c12      	lsrs	r2, r2, #16
 800150c:	4353      	muls	r3, r2
 800150e:	4698      	mov	r8, r3
 8001510:	0013      	movs	r3, r2
 8001512:	002f      	movs	r7, r5
 8001514:	4343      	muls	r3, r0
 8001516:	4699      	mov	r9, r3
 8001518:	434f      	muls	r7, r1
 800151a:	444f      	add	r7, r9
 800151c:	46bb      	mov	fp, r7
 800151e:	4647      	mov	r7, r8
 8001520:	000b      	movs	r3, r1
 8001522:	0c3f      	lsrs	r7, r7, #16
 8001524:	46ba      	mov	sl, r7
 8001526:	4343      	muls	r3, r0
 8001528:	44da      	add	sl, fp
 800152a:	9302      	str	r3, [sp, #8]
 800152c:	45d1      	cmp	r9, sl
 800152e:	d904      	bls.n	800153a <__aeabi_dmul+0x122>
 8001530:	2780      	movs	r7, #128	; 0x80
 8001532:	027f      	lsls	r7, r7, #9
 8001534:	46b9      	mov	r9, r7
 8001536:	444b      	add	r3, r9
 8001538:	9302      	str	r3, [sp, #8]
 800153a:	4653      	mov	r3, sl
 800153c:	0c1b      	lsrs	r3, r3, #16
 800153e:	469b      	mov	fp, r3
 8001540:	4653      	mov	r3, sl
 8001542:	041f      	lsls	r7, r3, #16
 8001544:	4643      	mov	r3, r8
 8001546:	041b      	lsls	r3, r3, #16
 8001548:	0c1b      	lsrs	r3, r3, #16
 800154a:	4698      	mov	r8, r3
 800154c:	003b      	movs	r3, r7
 800154e:	4443      	add	r3, r8
 8001550:	9304      	str	r3, [sp, #16]
 8001552:	0c33      	lsrs	r3, r6, #16
 8001554:	0436      	lsls	r6, r6, #16
 8001556:	0c36      	lsrs	r6, r6, #16
 8001558:	4698      	mov	r8, r3
 800155a:	0033      	movs	r3, r6
 800155c:	4343      	muls	r3, r0
 800155e:	4699      	mov	r9, r3
 8001560:	4643      	mov	r3, r8
 8001562:	4343      	muls	r3, r0
 8001564:	002f      	movs	r7, r5
 8001566:	469a      	mov	sl, r3
 8001568:	4643      	mov	r3, r8
 800156a:	4377      	muls	r7, r6
 800156c:	435d      	muls	r5, r3
 800156e:	0c38      	lsrs	r0, r7, #16
 8001570:	444d      	add	r5, r9
 8001572:	1945      	adds	r5, r0, r5
 8001574:	45a9      	cmp	r9, r5
 8001576:	d903      	bls.n	8001580 <__aeabi_dmul+0x168>
 8001578:	2380      	movs	r3, #128	; 0x80
 800157a:	025b      	lsls	r3, r3, #9
 800157c:	4699      	mov	r9, r3
 800157e:	44ca      	add	sl, r9
 8001580:	043f      	lsls	r7, r7, #16
 8001582:	0c28      	lsrs	r0, r5, #16
 8001584:	0c3f      	lsrs	r7, r7, #16
 8001586:	042d      	lsls	r5, r5, #16
 8001588:	19ed      	adds	r5, r5, r7
 800158a:	0c27      	lsrs	r7, r4, #16
 800158c:	0424      	lsls	r4, r4, #16
 800158e:	0c24      	lsrs	r4, r4, #16
 8001590:	0003      	movs	r3, r0
 8001592:	0020      	movs	r0, r4
 8001594:	4350      	muls	r0, r2
 8001596:	437a      	muls	r2, r7
 8001598:	4691      	mov	r9, r2
 800159a:	003a      	movs	r2, r7
 800159c:	4453      	add	r3, sl
 800159e:	9305      	str	r3, [sp, #20]
 80015a0:	0c03      	lsrs	r3, r0, #16
 80015a2:	469a      	mov	sl, r3
 80015a4:	434a      	muls	r2, r1
 80015a6:	4361      	muls	r1, r4
 80015a8:	4449      	add	r1, r9
 80015aa:	4451      	add	r1, sl
 80015ac:	44ab      	add	fp, r5
 80015ae:	4589      	cmp	r9, r1
 80015b0:	d903      	bls.n	80015ba <__aeabi_dmul+0x1a2>
 80015b2:	2380      	movs	r3, #128	; 0x80
 80015b4:	025b      	lsls	r3, r3, #9
 80015b6:	4699      	mov	r9, r3
 80015b8:	444a      	add	r2, r9
 80015ba:	0400      	lsls	r0, r0, #16
 80015bc:	0c0b      	lsrs	r3, r1, #16
 80015be:	0c00      	lsrs	r0, r0, #16
 80015c0:	0409      	lsls	r1, r1, #16
 80015c2:	1809      	adds	r1, r1, r0
 80015c4:	0020      	movs	r0, r4
 80015c6:	4699      	mov	r9, r3
 80015c8:	4643      	mov	r3, r8
 80015ca:	4370      	muls	r0, r6
 80015cc:	435c      	muls	r4, r3
 80015ce:	437e      	muls	r6, r7
 80015d0:	435f      	muls	r7, r3
 80015d2:	0c03      	lsrs	r3, r0, #16
 80015d4:	4698      	mov	r8, r3
 80015d6:	19a4      	adds	r4, r4, r6
 80015d8:	4444      	add	r4, r8
 80015da:	444a      	add	r2, r9
 80015dc:	9703      	str	r7, [sp, #12]
 80015de:	42a6      	cmp	r6, r4
 80015e0:	d904      	bls.n	80015ec <__aeabi_dmul+0x1d4>
 80015e2:	2380      	movs	r3, #128	; 0x80
 80015e4:	025b      	lsls	r3, r3, #9
 80015e6:	4698      	mov	r8, r3
 80015e8:	4447      	add	r7, r8
 80015ea:	9703      	str	r7, [sp, #12]
 80015ec:	0423      	lsls	r3, r4, #16
 80015ee:	9e02      	ldr	r6, [sp, #8]
 80015f0:	469a      	mov	sl, r3
 80015f2:	9b05      	ldr	r3, [sp, #20]
 80015f4:	445e      	add	r6, fp
 80015f6:	4698      	mov	r8, r3
 80015f8:	42ae      	cmp	r6, r5
 80015fa:	41ad      	sbcs	r5, r5
 80015fc:	1876      	adds	r6, r6, r1
 80015fe:	428e      	cmp	r6, r1
 8001600:	4189      	sbcs	r1, r1
 8001602:	0400      	lsls	r0, r0, #16
 8001604:	0c00      	lsrs	r0, r0, #16
 8001606:	4450      	add	r0, sl
 8001608:	4440      	add	r0, r8
 800160a:	426d      	negs	r5, r5
 800160c:	1947      	adds	r7, r0, r5
 800160e:	46b8      	mov	r8, r7
 8001610:	4693      	mov	fp, r2
 8001612:	4249      	negs	r1, r1
 8001614:	4689      	mov	r9, r1
 8001616:	44c3      	add	fp, r8
 8001618:	44d9      	add	r9, fp
 800161a:	4298      	cmp	r0, r3
 800161c:	4180      	sbcs	r0, r0
 800161e:	45a8      	cmp	r8, r5
 8001620:	41ad      	sbcs	r5, r5
 8001622:	4593      	cmp	fp, r2
 8001624:	4192      	sbcs	r2, r2
 8001626:	4589      	cmp	r9, r1
 8001628:	4189      	sbcs	r1, r1
 800162a:	426d      	negs	r5, r5
 800162c:	4240      	negs	r0, r0
 800162e:	4328      	orrs	r0, r5
 8001630:	0c24      	lsrs	r4, r4, #16
 8001632:	4252      	negs	r2, r2
 8001634:	4249      	negs	r1, r1
 8001636:	430a      	orrs	r2, r1
 8001638:	9b03      	ldr	r3, [sp, #12]
 800163a:	1900      	adds	r0, r0, r4
 800163c:	1880      	adds	r0, r0, r2
 800163e:	18c7      	adds	r7, r0, r3
 8001640:	464b      	mov	r3, r9
 8001642:	0ddc      	lsrs	r4, r3, #23
 8001644:	9b04      	ldr	r3, [sp, #16]
 8001646:	0275      	lsls	r5, r6, #9
 8001648:	431d      	orrs	r5, r3
 800164a:	1e6a      	subs	r2, r5, #1
 800164c:	4195      	sbcs	r5, r2
 800164e:	464b      	mov	r3, r9
 8001650:	0df6      	lsrs	r6, r6, #23
 8001652:	027f      	lsls	r7, r7, #9
 8001654:	4335      	orrs	r5, r6
 8001656:	025a      	lsls	r2, r3, #9
 8001658:	433c      	orrs	r4, r7
 800165a:	4315      	orrs	r5, r2
 800165c:	01fb      	lsls	r3, r7, #7
 800165e:	d400      	bmi.n	8001662 <__aeabi_dmul+0x24a>
 8001660:	e11c      	b.n	800189c <__aeabi_dmul+0x484>
 8001662:	2101      	movs	r1, #1
 8001664:	086a      	lsrs	r2, r5, #1
 8001666:	400d      	ands	r5, r1
 8001668:	4315      	orrs	r5, r2
 800166a:	07e2      	lsls	r2, r4, #31
 800166c:	4315      	orrs	r5, r2
 800166e:	0864      	lsrs	r4, r4, #1
 8001670:	494f      	ldr	r1, [pc, #316]	; (80017b0 <__aeabi_dmul+0x398>)
 8001672:	4461      	add	r1, ip
 8001674:	2900      	cmp	r1, #0
 8001676:	dc00      	bgt.n	800167a <__aeabi_dmul+0x262>
 8001678:	e0b0      	b.n	80017dc <__aeabi_dmul+0x3c4>
 800167a:	076b      	lsls	r3, r5, #29
 800167c:	d009      	beq.n	8001692 <__aeabi_dmul+0x27a>
 800167e:	220f      	movs	r2, #15
 8001680:	402a      	ands	r2, r5
 8001682:	2a04      	cmp	r2, #4
 8001684:	d005      	beq.n	8001692 <__aeabi_dmul+0x27a>
 8001686:	1d2a      	adds	r2, r5, #4
 8001688:	42aa      	cmp	r2, r5
 800168a:	41ad      	sbcs	r5, r5
 800168c:	426d      	negs	r5, r5
 800168e:	1964      	adds	r4, r4, r5
 8001690:	0015      	movs	r5, r2
 8001692:	01e3      	lsls	r3, r4, #7
 8001694:	d504      	bpl.n	80016a0 <__aeabi_dmul+0x288>
 8001696:	2180      	movs	r1, #128	; 0x80
 8001698:	4a46      	ldr	r2, [pc, #280]	; (80017b4 <__aeabi_dmul+0x39c>)
 800169a:	00c9      	lsls	r1, r1, #3
 800169c:	4014      	ands	r4, r2
 800169e:	4461      	add	r1, ip
 80016a0:	4a45      	ldr	r2, [pc, #276]	; (80017b8 <__aeabi_dmul+0x3a0>)
 80016a2:	4291      	cmp	r1, r2
 80016a4:	dd00      	ble.n	80016a8 <__aeabi_dmul+0x290>
 80016a6:	e726      	b.n	80014f6 <__aeabi_dmul+0xde>
 80016a8:	0762      	lsls	r2, r4, #29
 80016aa:	08ed      	lsrs	r5, r5, #3
 80016ac:	0264      	lsls	r4, r4, #9
 80016ae:	0549      	lsls	r1, r1, #21
 80016b0:	4315      	orrs	r5, r2
 80016b2:	0b24      	lsrs	r4, r4, #12
 80016b4:	0d4a      	lsrs	r2, r1, #21
 80016b6:	e710      	b.n	80014da <__aeabi_dmul+0xc2>
 80016b8:	4652      	mov	r2, sl
 80016ba:	4332      	orrs	r2, r6
 80016bc:	d100      	bne.n	80016c0 <__aeabi_dmul+0x2a8>
 80016be:	e07f      	b.n	80017c0 <__aeabi_dmul+0x3a8>
 80016c0:	2e00      	cmp	r6, #0
 80016c2:	d100      	bne.n	80016c6 <__aeabi_dmul+0x2ae>
 80016c4:	e0dc      	b.n	8001880 <__aeabi_dmul+0x468>
 80016c6:	0030      	movs	r0, r6
 80016c8:	f000 fd30 	bl	800212c <__clzsi2>
 80016cc:	0002      	movs	r2, r0
 80016ce:	3a0b      	subs	r2, #11
 80016d0:	231d      	movs	r3, #29
 80016d2:	0001      	movs	r1, r0
 80016d4:	1a9b      	subs	r3, r3, r2
 80016d6:	4652      	mov	r2, sl
 80016d8:	3908      	subs	r1, #8
 80016da:	40da      	lsrs	r2, r3
 80016dc:	408e      	lsls	r6, r1
 80016de:	4316      	orrs	r6, r2
 80016e0:	4652      	mov	r2, sl
 80016e2:	408a      	lsls	r2, r1
 80016e4:	9b00      	ldr	r3, [sp, #0]
 80016e6:	4935      	ldr	r1, [pc, #212]	; (80017bc <__aeabi_dmul+0x3a4>)
 80016e8:	1a18      	subs	r0, r3, r0
 80016ea:	0003      	movs	r3, r0
 80016ec:	468c      	mov	ip, r1
 80016ee:	4463      	add	r3, ip
 80016f0:	2000      	movs	r0, #0
 80016f2:	9300      	str	r3, [sp, #0]
 80016f4:	e6d3      	b.n	800149e <__aeabi_dmul+0x86>
 80016f6:	0025      	movs	r5, r4
 80016f8:	4305      	orrs	r5, r0
 80016fa:	d04a      	beq.n	8001792 <__aeabi_dmul+0x37a>
 80016fc:	2c00      	cmp	r4, #0
 80016fe:	d100      	bne.n	8001702 <__aeabi_dmul+0x2ea>
 8001700:	e0b0      	b.n	8001864 <__aeabi_dmul+0x44c>
 8001702:	0020      	movs	r0, r4
 8001704:	f000 fd12 	bl	800212c <__clzsi2>
 8001708:	0001      	movs	r1, r0
 800170a:	0002      	movs	r2, r0
 800170c:	390b      	subs	r1, #11
 800170e:	231d      	movs	r3, #29
 8001710:	0010      	movs	r0, r2
 8001712:	1a5b      	subs	r3, r3, r1
 8001714:	0031      	movs	r1, r6
 8001716:	0035      	movs	r5, r6
 8001718:	3808      	subs	r0, #8
 800171a:	4084      	lsls	r4, r0
 800171c:	40d9      	lsrs	r1, r3
 800171e:	4085      	lsls	r5, r0
 8001720:	430c      	orrs	r4, r1
 8001722:	4826      	ldr	r0, [pc, #152]	; (80017bc <__aeabi_dmul+0x3a4>)
 8001724:	1a83      	subs	r3, r0, r2
 8001726:	9300      	str	r3, [sp, #0]
 8001728:	2300      	movs	r3, #0
 800172a:	4699      	mov	r9, r3
 800172c:	469b      	mov	fp, r3
 800172e:	e697      	b.n	8001460 <__aeabi_dmul+0x48>
 8001730:	0005      	movs	r5, r0
 8001732:	4325      	orrs	r5, r4
 8001734:	d126      	bne.n	8001784 <__aeabi_dmul+0x36c>
 8001736:	2208      	movs	r2, #8
 8001738:	9300      	str	r3, [sp, #0]
 800173a:	2302      	movs	r3, #2
 800173c:	2400      	movs	r4, #0
 800173e:	4691      	mov	r9, r2
 8001740:	469b      	mov	fp, r3
 8001742:	e68d      	b.n	8001460 <__aeabi_dmul+0x48>
 8001744:	4652      	mov	r2, sl
 8001746:	9b00      	ldr	r3, [sp, #0]
 8001748:	4332      	orrs	r2, r6
 800174a:	d110      	bne.n	800176e <__aeabi_dmul+0x356>
 800174c:	4915      	ldr	r1, [pc, #84]	; (80017a4 <__aeabi_dmul+0x38c>)
 800174e:	2600      	movs	r6, #0
 8001750:	468c      	mov	ip, r1
 8001752:	4463      	add	r3, ip
 8001754:	4649      	mov	r1, r9
 8001756:	9300      	str	r3, [sp, #0]
 8001758:	2302      	movs	r3, #2
 800175a:	4319      	orrs	r1, r3
 800175c:	4689      	mov	r9, r1
 800175e:	2002      	movs	r0, #2
 8001760:	e69d      	b.n	800149e <__aeabi_dmul+0x86>
 8001762:	465b      	mov	r3, fp
 8001764:	9701      	str	r7, [sp, #4]
 8001766:	2b02      	cmp	r3, #2
 8001768:	d000      	beq.n	800176c <__aeabi_dmul+0x354>
 800176a:	e6ad      	b.n	80014c8 <__aeabi_dmul+0xb0>
 800176c:	e6c3      	b.n	80014f6 <__aeabi_dmul+0xde>
 800176e:	4a0d      	ldr	r2, [pc, #52]	; (80017a4 <__aeabi_dmul+0x38c>)
 8001770:	2003      	movs	r0, #3
 8001772:	4694      	mov	ip, r2
 8001774:	4463      	add	r3, ip
 8001776:	464a      	mov	r2, r9
 8001778:	9300      	str	r3, [sp, #0]
 800177a:	2303      	movs	r3, #3
 800177c:	431a      	orrs	r2, r3
 800177e:	4691      	mov	r9, r2
 8001780:	4652      	mov	r2, sl
 8001782:	e68c      	b.n	800149e <__aeabi_dmul+0x86>
 8001784:	220c      	movs	r2, #12
 8001786:	9300      	str	r3, [sp, #0]
 8001788:	2303      	movs	r3, #3
 800178a:	0005      	movs	r5, r0
 800178c:	4691      	mov	r9, r2
 800178e:	469b      	mov	fp, r3
 8001790:	e666      	b.n	8001460 <__aeabi_dmul+0x48>
 8001792:	2304      	movs	r3, #4
 8001794:	4699      	mov	r9, r3
 8001796:	2300      	movs	r3, #0
 8001798:	9300      	str	r3, [sp, #0]
 800179a:	3301      	adds	r3, #1
 800179c:	2400      	movs	r4, #0
 800179e:	469b      	mov	fp, r3
 80017a0:	e65e      	b.n	8001460 <__aeabi_dmul+0x48>
 80017a2:	46c0      	nop			; (mov r8, r8)
 80017a4:	000007ff 	.word	0x000007ff
 80017a8:	fffffc01 	.word	0xfffffc01
 80017ac:	08007f28 	.word	0x08007f28
 80017b0:	000003ff 	.word	0x000003ff
 80017b4:	feffffff 	.word	0xfeffffff
 80017b8:	000007fe 	.word	0x000007fe
 80017bc:	fffffc0d 	.word	0xfffffc0d
 80017c0:	4649      	mov	r1, r9
 80017c2:	2301      	movs	r3, #1
 80017c4:	4319      	orrs	r1, r3
 80017c6:	4689      	mov	r9, r1
 80017c8:	2600      	movs	r6, #0
 80017ca:	2001      	movs	r0, #1
 80017cc:	e667      	b.n	800149e <__aeabi_dmul+0x86>
 80017ce:	2300      	movs	r3, #0
 80017d0:	2480      	movs	r4, #128	; 0x80
 80017d2:	2500      	movs	r5, #0
 80017d4:	4a43      	ldr	r2, [pc, #268]	; (80018e4 <__aeabi_dmul+0x4cc>)
 80017d6:	9301      	str	r3, [sp, #4]
 80017d8:	0324      	lsls	r4, r4, #12
 80017da:	e67e      	b.n	80014da <__aeabi_dmul+0xc2>
 80017dc:	2001      	movs	r0, #1
 80017de:	1a40      	subs	r0, r0, r1
 80017e0:	2838      	cmp	r0, #56	; 0x38
 80017e2:	dd00      	ble.n	80017e6 <__aeabi_dmul+0x3ce>
 80017e4:	e676      	b.n	80014d4 <__aeabi_dmul+0xbc>
 80017e6:	281f      	cmp	r0, #31
 80017e8:	dd5b      	ble.n	80018a2 <__aeabi_dmul+0x48a>
 80017ea:	221f      	movs	r2, #31
 80017ec:	0023      	movs	r3, r4
 80017ee:	4252      	negs	r2, r2
 80017f0:	1a51      	subs	r1, r2, r1
 80017f2:	40cb      	lsrs	r3, r1
 80017f4:	0019      	movs	r1, r3
 80017f6:	2820      	cmp	r0, #32
 80017f8:	d003      	beq.n	8001802 <__aeabi_dmul+0x3ea>
 80017fa:	4a3b      	ldr	r2, [pc, #236]	; (80018e8 <__aeabi_dmul+0x4d0>)
 80017fc:	4462      	add	r2, ip
 80017fe:	4094      	lsls	r4, r2
 8001800:	4325      	orrs	r5, r4
 8001802:	1e6a      	subs	r2, r5, #1
 8001804:	4195      	sbcs	r5, r2
 8001806:	002a      	movs	r2, r5
 8001808:	430a      	orrs	r2, r1
 800180a:	2107      	movs	r1, #7
 800180c:	000d      	movs	r5, r1
 800180e:	2400      	movs	r4, #0
 8001810:	4015      	ands	r5, r2
 8001812:	4211      	tst	r1, r2
 8001814:	d05b      	beq.n	80018ce <__aeabi_dmul+0x4b6>
 8001816:	210f      	movs	r1, #15
 8001818:	2400      	movs	r4, #0
 800181a:	4011      	ands	r1, r2
 800181c:	2904      	cmp	r1, #4
 800181e:	d053      	beq.n	80018c8 <__aeabi_dmul+0x4b0>
 8001820:	1d11      	adds	r1, r2, #4
 8001822:	4291      	cmp	r1, r2
 8001824:	4192      	sbcs	r2, r2
 8001826:	4252      	negs	r2, r2
 8001828:	18a4      	adds	r4, r4, r2
 800182a:	000a      	movs	r2, r1
 800182c:	0223      	lsls	r3, r4, #8
 800182e:	d54b      	bpl.n	80018c8 <__aeabi_dmul+0x4b0>
 8001830:	2201      	movs	r2, #1
 8001832:	2400      	movs	r4, #0
 8001834:	2500      	movs	r5, #0
 8001836:	e650      	b.n	80014da <__aeabi_dmul+0xc2>
 8001838:	2380      	movs	r3, #128	; 0x80
 800183a:	031b      	lsls	r3, r3, #12
 800183c:	421c      	tst	r4, r3
 800183e:	d009      	beq.n	8001854 <__aeabi_dmul+0x43c>
 8001840:	421e      	tst	r6, r3
 8001842:	d107      	bne.n	8001854 <__aeabi_dmul+0x43c>
 8001844:	4333      	orrs	r3, r6
 8001846:	031c      	lsls	r4, r3, #12
 8001848:	4643      	mov	r3, r8
 800184a:	0015      	movs	r5, r2
 800184c:	0b24      	lsrs	r4, r4, #12
 800184e:	4a25      	ldr	r2, [pc, #148]	; (80018e4 <__aeabi_dmul+0x4cc>)
 8001850:	9301      	str	r3, [sp, #4]
 8001852:	e642      	b.n	80014da <__aeabi_dmul+0xc2>
 8001854:	2280      	movs	r2, #128	; 0x80
 8001856:	0312      	lsls	r2, r2, #12
 8001858:	4314      	orrs	r4, r2
 800185a:	0324      	lsls	r4, r4, #12
 800185c:	4a21      	ldr	r2, [pc, #132]	; (80018e4 <__aeabi_dmul+0x4cc>)
 800185e:	0b24      	lsrs	r4, r4, #12
 8001860:	9701      	str	r7, [sp, #4]
 8001862:	e63a      	b.n	80014da <__aeabi_dmul+0xc2>
 8001864:	f000 fc62 	bl	800212c <__clzsi2>
 8001868:	0001      	movs	r1, r0
 800186a:	0002      	movs	r2, r0
 800186c:	3115      	adds	r1, #21
 800186e:	3220      	adds	r2, #32
 8001870:	291c      	cmp	r1, #28
 8001872:	dc00      	bgt.n	8001876 <__aeabi_dmul+0x45e>
 8001874:	e74b      	b.n	800170e <__aeabi_dmul+0x2f6>
 8001876:	0034      	movs	r4, r6
 8001878:	3808      	subs	r0, #8
 800187a:	2500      	movs	r5, #0
 800187c:	4084      	lsls	r4, r0
 800187e:	e750      	b.n	8001722 <__aeabi_dmul+0x30a>
 8001880:	f000 fc54 	bl	800212c <__clzsi2>
 8001884:	0003      	movs	r3, r0
 8001886:	001a      	movs	r2, r3
 8001888:	3215      	adds	r2, #21
 800188a:	3020      	adds	r0, #32
 800188c:	2a1c      	cmp	r2, #28
 800188e:	dc00      	bgt.n	8001892 <__aeabi_dmul+0x47a>
 8001890:	e71e      	b.n	80016d0 <__aeabi_dmul+0x2b8>
 8001892:	4656      	mov	r6, sl
 8001894:	3b08      	subs	r3, #8
 8001896:	2200      	movs	r2, #0
 8001898:	409e      	lsls	r6, r3
 800189a:	e723      	b.n	80016e4 <__aeabi_dmul+0x2cc>
 800189c:	9b00      	ldr	r3, [sp, #0]
 800189e:	469c      	mov	ip, r3
 80018a0:	e6e6      	b.n	8001670 <__aeabi_dmul+0x258>
 80018a2:	4912      	ldr	r1, [pc, #72]	; (80018ec <__aeabi_dmul+0x4d4>)
 80018a4:	0022      	movs	r2, r4
 80018a6:	4461      	add	r1, ip
 80018a8:	002e      	movs	r6, r5
 80018aa:	408d      	lsls	r5, r1
 80018ac:	408a      	lsls	r2, r1
 80018ae:	40c6      	lsrs	r6, r0
 80018b0:	1e69      	subs	r1, r5, #1
 80018b2:	418d      	sbcs	r5, r1
 80018b4:	4332      	orrs	r2, r6
 80018b6:	432a      	orrs	r2, r5
 80018b8:	40c4      	lsrs	r4, r0
 80018ba:	0753      	lsls	r3, r2, #29
 80018bc:	d0b6      	beq.n	800182c <__aeabi_dmul+0x414>
 80018be:	210f      	movs	r1, #15
 80018c0:	4011      	ands	r1, r2
 80018c2:	2904      	cmp	r1, #4
 80018c4:	d1ac      	bne.n	8001820 <__aeabi_dmul+0x408>
 80018c6:	e7b1      	b.n	800182c <__aeabi_dmul+0x414>
 80018c8:	0765      	lsls	r5, r4, #29
 80018ca:	0264      	lsls	r4, r4, #9
 80018cc:	0b24      	lsrs	r4, r4, #12
 80018ce:	08d2      	lsrs	r2, r2, #3
 80018d0:	4315      	orrs	r5, r2
 80018d2:	2200      	movs	r2, #0
 80018d4:	e601      	b.n	80014da <__aeabi_dmul+0xc2>
 80018d6:	2280      	movs	r2, #128	; 0x80
 80018d8:	0312      	lsls	r2, r2, #12
 80018da:	4314      	orrs	r4, r2
 80018dc:	0324      	lsls	r4, r4, #12
 80018de:	4a01      	ldr	r2, [pc, #4]	; (80018e4 <__aeabi_dmul+0x4cc>)
 80018e0:	0b24      	lsrs	r4, r4, #12
 80018e2:	e5fa      	b.n	80014da <__aeabi_dmul+0xc2>
 80018e4:	000007ff 	.word	0x000007ff
 80018e8:	0000043e 	.word	0x0000043e
 80018ec:	0000041e 	.word	0x0000041e

080018f0 <__aeabi_dsub>:
 80018f0:	b5f8      	push	{r3, r4, r5, r6, r7, lr}
 80018f2:	4657      	mov	r7, sl
 80018f4:	464e      	mov	r6, r9
 80018f6:	4645      	mov	r5, r8
 80018f8:	46de      	mov	lr, fp
 80018fa:	b5e0      	push	{r5, r6, r7, lr}
 80018fc:	001e      	movs	r6, r3
 80018fe:	0017      	movs	r7, r2
 8001900:	004a      	lsls	r2, r1, #1
 8001902:	030b      	lsls	r3, r1, #12
 8001904:	0d52      	lsrs	r2, r2, #21
 8001906:	0a5b      	lsrs	r3, r3, #9
 8001908:	4690      	mov	r8, r2
 800190a:	0f42      	lsrs	r2, r0, #29
 800190c:	431a      	orrs	r2, r3
 800190e:	0fcd      	lsrs	r5, r1, #31
 8001910:	4ccd      	ldr	r4, [pc, #820]	; (8001c48 <__aeabi_dsub+0x358>)
 8001912:	0331      	lsls	r1, r6, #12
 8001914:	00c3      	lsls	r3, r0, #3
 8001916:	4694      	mov	ip, r2
 8001918:	0070      	lsls	r0, r6, #1
 800191a:	0f7a      	lsrs	r2, r7, #29
 800191c:	0a49      	lsrs	r1, r1, #9
 800191e:	00ff      	lsls	r7, r7, #3
 8001920:	469a      	mov	sl, r3
 8001922:	46b9      	mov	r9, r7
 8001924:	0d40      	lsrs	r0, r0, #21
 8001926:	0ff6      	lsrs	r6, r6, #31
 8001928:	4311      	orrs	r1, r2
 800192a:	42a0      	cmp	r0, r4
 800192c:	d100      	bne.n	8001930 <__aeabi_dsub+0x40>
 800192e:	e0b1      	b.n	8001a94 <__aeabi_dsub+0x1a4>
 8001930:	2201      	movs	r2, #1
 8001932:	4056      	eors	r6, r2
 8001934:	46b3      	mov	fp, r6
 8001936:	42b5      	cmp	r5, r6
 8001938:	d100      	bne.n	800193c <__aeabi_dsub+0x4c>
 800193a:	e088      	b.n	8001a4e <__aeabi_dsub+0x15e>
 800193c:	4642      	mov	r2, r8
 800193e:	1a12      	subs	r2, r2, r0
 8001940:	2a00      	cmp	r2, #0
 8001942:	dc00      	bgt.n	8001946 <__aeabi_dsub+0x56>
 8001944:	e0ae      	b.n	8001aa4 <__aeabi_dsub+0x1b4>
 8001946:	2800      	cmp	r0, #0
 8001948:	d100      	bne.n	800194c <__aeabi_dsub+0x5c>
 800194a:	e0c1      	b.n	8001ad0 <__aeabi_dsub+0x1e0>
 800194c:	48be      	ldr	r0, [pc, #760]	; (8001c48 <__aeabi_dsub+0x358>)
 800194e:	4580      	cmp	r8, r0
 8001950:	d100      	bne.n	8001954 <__aeabi_dsub+0x64>
 8001952:	e151      	b.n	8001bf8 <__aeabi_dsub+0x308>
 8001954:	2080      	movs	r0, #128	; 0x80
 8001956:	0400      	lsls	r0, r0, #16
 8001958:	4301      	orrs	r1, r0
 800195a:	2a38      	cmp	r2, #56	; 0x38
 800195c:	dd00      	ble.n	8001960 <__aeabi_dsub+0x70>
 800195e:	e17b      	b.n	8001c58 <__aeabi_dsub+0x368>
 8001960:	2a1f      	cmp	r2, #31
 8001962:	dd00      	ble.n	8001966 <__aeabi_dsub+0x76>
 8001964:	e1ee      	b.n	8001d44 <__aeabi_dsub+0x454>
 8001966:	2020      	movs	r0, #32
 8001968:	003e      	movs	r6, r7
 800196a:	1a80      	subs	r0, r0, r2
 800196c:	000c      	movs	r4, r1
 800196e:	40d6      	lsrs	r6, r2
 8001970:	40d1      	lsrs	r1, r2
 8001972:	4087      	lsls	r7, r0
 8001974:	4662      	mov	r2, ip
 8001976:	4084      	lsls	r4, r0
 8001978:	1a52      	subs	r2, r2, r1
 800197a:	1e78      	subs	r0, r7, #1
 800197c:	4187      	sbcs	r7, r0
 800197e:	4694      	mov	ip, r2
 8001980:	4334      	orrs	r4, r6
 8001982:	4327      	orrs	r7, r4
 8001984:	1bdc      	subs	r4, r3, r7
 8001986:	42a3      	cmp	r3, r4
 8001988:	419b      	sbcs	r3, r3
 800198a:	4662      	mov	r2, ip
 800198c:	425b      	negs	r3, r3
 800198e:	1ad3      	subs	r3, r2, r3
 8001990:	4699      	mov	r9, r3
 8001992:	464b      	mov	r3, r9
 8001994:	021b      	lsls	r3, r3, #8
 8001996:	d400      	bmi.n	800199a <__aeabi_dsub+0xaa>
 8001998:	e118      	b.n	8001bcc <__aeabi_dsub+0x2dc>
 800199a:	464b      	mov	r3, r9
 800199c:	0258      	lsls	r0, r3, #9
 800199e:	0a43      	lsrs	r3, r0, #9
 80019a0:	4699      	mov	r9, r3
 80019a2:	464b      	mov	r3, r9
 80019a4:	2b00      	cmp	r3, #0
 80019a6:	d100      	bne.n	80019aa <__aeabi_dsub+0xba>
 80019a8:	e137      	b.n	8001c1a <__aeabi_dsub+0x32a>
 80019aa:	4648      	mov	r0, r9
 80019ac:	f000 fbbe 	bl	800212c <__clzsi2>
 80019b0:	0001      	movs	r1, r0
 80019b2:	3908      	subs	r1, #8
 80019b4:	2320      	movs	r3, #32
 80019b6:	0022      	movs	r2, r4
 80019b8:	4648      	mov	r0, r9
 80019ba:	1a5b      	subs	r3, r3, r1
 80019bc:	40da      	lsrs	r2, r3
 80019be:	4088      	lsls	r0, r1
 80019c0:	408c      	lsls	r4, r1
 80019c2:	4643      	mov	r3, r8
 80019c4:	4310      	orrs	r0, r2
 80019c6:	4588      	cmp	r8, r1
 80019c8:	dd00      	ble.n	80019cc <__aeabi_dsub+0xdc>
 80019ca:	e136      	b.n	8001c3a <__aeabi_dsub+0x34a>
 80019cc:	1ac9      	subs	r1, r1, r3
 80019ce:	1c4b      	adds	r3, r1, #1
 80019d0:	2b1f      	cmp	r3, #31
 80019d2:	dd00      	ble.n	80019d6 <__aeabi_dsub+0xe6>
 80019d4:	e0ea      	b.n	8001bac <__aeabi_dsub+0x2bc>
 80019d6:	2220      	movs	r2, #32
 80019d8:	0026      	movs	r6, r4
 80019da:	1ad2      	subs	r2, r2, r3
 80019dc:	0001      	movs	r1, r0
 80019de:	4094      	lsls	r4, r2
 80019e0:	40de      	lsrs	r6, r3
 80019e2:	40d8      	lsrs	r0, r3
 80019e4:	2300      	movs	r3, #0
 80019e6:	4091      	lsls	r1, r2
 80019e8:	1e62      	subs	r2, r4, #1
 80019ea:	4194      	sbcs	r4, r2
 80019ec:	4681      	mov	r9, r0
 80019ee:	4698      	mov	r8, r3
 80019f0:	4331      	orrs	r1, r6
 80019f2:	430c      	orrs	r4, r1
 80019f4:	0763      	lsls	r3, r4, #29
 80019f6:	d009      	beq.n	8001a0c <__aeabi_dsub+0x11c>
 80019f8:	230f      	movs	r3, #15
 80019fa:	4023      	ands	r3, r4
 80019fc:	2b04      	cmp	r3, #4
 80019fe:	d005      	beq.n	8001a0c <__aeabi_dsub+0x11c>
 8001a00:	1d23      	adds	r3, r4, #4
 8001a02:	42a3      	cmp	r3, r4
 8001a04:	41a4      	sbcs	r4, r4
 8001a06:	4264      	negs	r4, r4
 8001a08:	44a1      	add	r9, r4
 8001a0a:	001c      	movs	r4, r3
 8001a0c:	464b      	mov	r3, r9
 8001a0e:	021b      	lsls	r3, r3, #8
 8001a10:	d400      	bmi.n	8001a14 <__aeabi_dsub+0x124>
 8001a12:	e0de      	b.n	8001bd2 <__aeabi_dsub+0x2e2>
 8001a14:	4641      	mov	r1, r8
 8001a16:	4b8c      	ldr	r3, [pc, #560]	; (8001c48 <__aeabi_dsub+0x358>)
 8001a18:	3101      	adds	r1, #1
 8001a1a:	4299      	cmp	r1, r3
 8001a1c:	d100      	bne.n	8001a20 <__aeabi_dsub+0x130>
 8001a1e:	e0e7      	b.n	8001bf0 <__aeabi_dsub+0x300>
 8001a20:	464b      	mov	r3, r9
 8001a22:	488a      	ldr	r0, [pc, #552]	; (8001c4c <__aeabi_dsub+0x35c>)
 8001a24:	08e4      	lsrs	r4, r4, #3
 8001a26:	4003      	ands	r3, r0
 8001a28:	0018      	movs	r0, r3
 8001a2a:	0549      	lsls	r1, r1, #21
 8001a2c:	075b      	lsls	r3, r3, #29
 8001a2e:	0240      	lsls	r0, r0, #9
 8001a30:	4323      	orrs	r3, r4
 8001a32:	0d4a      	lsrs	r2, r1, #21
 8001a34:	0b04      	lsrs	r4, r0, #12
 8001a36:	0512      	lsls	r2, r2, #20
 8001a38:	07ed      	lsls	r5, r5, #31
 8001a3a:	4322      	orrs	r2, r4
 8001a3c:	432a      	orrs	r2, r5
 8001a3e:	0018      	movs	r0, r3
 8001a40:	0011      	movs	r1, r2
 8001a42:	bcf0      	pop	{r4, r5, r6, r7}
 8001a44:	46bb      	mov	fp, r7
 8001a46:	46b2      	mov	sl, r6
 8001a48:	46a9      	mov	r9, r5
 8001a4a:	46a0      	mov	r8, r4
 8001a4c:	bdf8      	pop	{r3, r4, r5, r6, r7, pc}
 8001a4e:	4642      	mov	r2, r8
 8001a50:	1a12      	subs	r2, r2, r0
 8001a52:	2a00      	cmp	r2, #0
 8001a54:	dd52      	ble.n	8001afc <__aeabi_dsub+0x20c>
 8001a56:	2800      	cmp	r0, #0
 8001a58:	d100      	bne.n	8001a5c <__aeabi_dsub+0x16c>
 8001a5a:	e09c      	b.n	8001b96 <__aeabi_dsub+0x2a6>
 8001a5c:	45a0      	cmp	r8, r4
 8001a5e:	d100      	bne.n	8001a62 <__aeabi_dsub+0x172>
 8001a60:	e0ca      	b.n	8001bf8 <__aeabi_dsub+0x308>
 8001a62:	2080      	movs	r0, #128	; 0x80
 8001a64:	0400      	lsls	r0, r0, #16
 8001a66:	4301      	orrs	r1, r0
 8001a68:	2a38      	cmp	r2, #56	; 0x38
 8001a6a:	dd00      	ble.n	8001a6e <__aeabi_dsub+0x17e>
 8001a6c:	e149      	b.n	8001d02 <__aeabi_dsub+0x412>
 8001a6e:	2a1f      	cmp	r2, #31
 8001a70:	dc00      	bgt.n	8001a74 <__aeabi_dsub+0x184>
 8001a72:	e197      	b.n	8001da4 <__aeabi_dsub+0x4b4>
 8001a74:	0010      	movs	r0, r2
 8001a76:	000e      	movs	r6, r1
 8001a78:	3820      	subs	r0, #32
 8001a7a:	40c6      	lsrs	r6, r0
 8001a7c:	2a20      	cmp	r2, #32
 8001a7e:	d004      	beq.n	8001a8a <__aeabi_dsub+0x19a>
 8001a80:	2040      	movs	r0, #64	; 0x40
 8001a82:	1a82      	subs	r2, r0, r2
 8001a84:	4091      	lsls	r1, r2
 8001a86:	430f      	orrs	r7, r1
 8001a88:	46b9      	mov	r9, r7
 8001a8a:	464c      	mov	r4, r9
 8001a8c:	1e62      	subs	r2, r4, #1
 8001a8e:	4194      	sbcs	r4, r2
 8001a90:	4334      	orrs	r4, r6
 8001a92:	e13a      	b.n	8001d0a <__aeabi_dsub+0x41a>
 8001a94:	000a      	movs	r2, r1
 8001a96:	433a      	orrs	r2, r7
 8001a98:	d028      	beq.n	8001aec <__aeabi_dsub+0x1fc>
 8001a9a:	46b3      	mov	fp, r6
 8001a9c:	42b5      	cmp	r5, r6
 8001a9e:	d02b      	beq.n	8001af8 <__aeabi_dsub+0x208>
 8001aa0:	4a6b      	ldr	r2, [pc, #428]	; (8001c50 <__aeabi_dsub+0x360>)
 8001aa2:	4442      	add	r2, r8
 8001aa4:	2a00      	cmp	r2, #0
 8001aa6:	d05d      	beq.n	8001b64 <__aeabi_dsub+0x274>
 8001aa8:	4642      	mov	r2, r8
 8001aaa:	4644      	mov	r4, r8
 8001aac:	1a82      	subs	r2, r0, r2
 8001aae:	2c00      	cmp	r4, #0
 8001ab0:	d000      	beq.n	8001ab4 <__aeabi_dsub+0x1c4>
 8001ab2:	e0f5      	b.n	8001ca0 <__aeabi_dsub+0x3b0>
 8001ab4:	4665      	mov	r5, ip
 8001ab6:	431d      	orrs	r5, r3
 8001ab8:	d100      	bne.n	8001abc <__aeabi_dsub+0x1cc>
 8001aba:	e19c      	b.n	8001df6 <__aeabi_dsub+0x506>
 8001abc:	1e55      	subs	r5, r2, #1
 8001abe:	2a01      	cmp	r2, #1
 8001ac0:	d100      	bne.n	8001ac4 <__aeabi_dsub+0x1d4>
 8001ac2:	e1fb      	b.n	8001ebc <__aeabi_dsub+0x5cc>
 8001ac4:	4c60      	ldr	r4, [pc, #384]	; (8001c48 <__aeabi_dsub+0x358>)
 8001ac6:	42a2      	cmp	r2, r4
 8001ac8:	d100      	bne.n	8001acc <__aeabi_dsub+0x1dc>
 8001aca:	e1bd      	b.n	8001e48 <__aeabi_dsub+0x558>
 8001acc:	002a      	movs	r2, r5
 8001ace:	e0f0      	b.n	8001cb2 <__aeabi_dsub+0x3c2>
 8001ad0:	0008      	movs	r0, r1
 8001ad2:	4338      	orrs	r0, r7
 8001ad4:	d100      	bne.n	8001ad8 <__aeabi_dsub+0x1e8>
 8001ad6:	e0c3      	b.n	8001c60 <__aeabi_dsub+0x370>
 8001ad8:	1e50      	subs	r0, r2, #1
 8001ada:	2a01      	cmp	r2, #1
 8001adc:	d100      	bne.n	8001ae0 <__aeabi_dsub+0x1f0>
 8001ade:	e1a8      	b.n	8001e32 <__aeabi_dsub+0x542>
 8001ae0:	4c59      	ldr	r4, [pc, #356]	; (8001c48 <__aeabi_dsub+0x358>)
 8001ae2:	42a2      	cmp	r2, r4
 8001ae4:	d100      	bne.n	8001ae8 <__aeabi_dsub+0x1f8>
 8001ae6:	e087      	b.n	8001bf8 <__aeabi_dsub+0x308>
 8001ae8:	0002      	movs	r2, r0
 8001aea:	e736      	b.n	800195a <__aeabi_dsub+0x6a>
 8001aec:	2201      	movs	r2, #1
 8001aee:	4056      	eors	r6, r2
 8001af0:	46b3      	mov	fp, r6
 8001af2:	42b5      	cmp	r5, r6
 8001af4:	d000      	beq.n	8001af8 <__aeabi_dsub+0x208>
 8001af6:	e721      	b.n	800193c <__aeabi_dsub+0x4c>
 8001af8:	4a55      	ldr	r2, [pc, #340]	; (8001c50 <__aeabi_dsub+0x360>)
 8001afa:	4442      	add	r2, r8
 8001afc:	2a00      	cmp	r2, #0
 8001afe:	d100      	bne.n	8001b02 <__aeabi_dsub+0x212>
 8001b00:	e0b5      	b.n	8001c6e <__aeabi_dsub+0x37e>
 8001b02:	4642      	mov	r2, r8
 8001b04:	4644      	mov	r4, r8
 8001b06:	1a82      	subs	r2, r0, r2
 8001b08:	2c00      	cmp	r4, #0
 8001b0a:	d100      	bne.n	8001b0e <__aeabi_dsub+0x21e>
 8001b0c:	e138      	b.n	8001d80 <__aeabi_dsub+0x490>
 8001b0e:	4e4e      	ldr	r6, [pc, #312]	; (8001c48 <__aeabi_dsub+0x358>)
 8001b10:	42b0      	cmp	r0, r6
 8001b12:	d100      	bne.n	8001b16 <__aeabi_dsub+0x226>
 8001b14:	e1de      	b.n	8001ed4 <__aeabi_dsub+0x5e4>
 8001b16:	2680      	movs	r6, #128	; 0x80
 8001b18:	4664      	mov	r4, ip
 8001b1a:	0436      	lsls	r6, r6, #16
 8001b1c:	4334      	orrs	r4, r6
 8001b1e:	46a4      	mov	ip, r4
 8001b20:	2a38      	cmp	r2, #56	; 0x38
 8001b22:	dd00      	ble.n	8001b26 <__aeabi_dsub+0x236>
 8001b24:	e196      	b.n	8001e54 <__aeabi_dsub+0x564>
 8001b26:	2a1f      	cmp	r2, #31
 8001b28:	dd00      	ble.n	8001b2c <__aeabi_dsub+0x23c>
 8001b2a:	e224      	b.n	8001f76 <__aeabi_dsub+0x686>
 8001b2c:	2620      	movs	r6, #32
 8001b2e:	1ab4      	subs	r4, r6, r2
 8001b30:	46a2      	mov	sl, r4
 8001b32:	4664      	mov	r4, ip
 8001b34:	4656      	mov	r6, sl
 8001b36:	40b4      	lsls	r4, r6
 8001b38:	46a1      	mov	r9, r4
 8001b3a:	001c      	movs	r4, r3
 8001b3c:	464e      	mov	r6, r9
 8001b3e:	40d4      	lsrs	r4, r2
 8001b40:	4326      	orrs	r6, r4
 8001b42:	0034      	movs	r4, r6
 8001b44:	4656      	mov	r6, sl
 8001b46:	40b3      	lsls	r3, r6
 8001b48:	1e5e      	subs	r6, r3, #1
 8001b4a:	41b3      	sbcs	r3, r6
 8001b4c:	431c      	orrs	r4, r3
 8001b4e:	4663      	mov	r3, ip
 8001b50:	40d3      	lsrs	r3, r2
 8001b52:	18c9      	adds	r1, r1, r3
 8001b54:	19e4      	adds	r4, r4, r7
 8001b56:	42bc      	cmp	r4, r7
 8001b58:	41bf      	sbcs	r7, r7
 8001b5a:	427f      	negs	r7, r7
 8001b5c:	46b9      	mov	r9, r7
 8001b5e:	4680      	mov	r8, r0
 8001b60:	4489      	add	r9, r1
 8001b62:	e0d8      	b.n	8001d16 <__aeabi_dsub+0x426>
 8001b64:	4640      	mov	r0, r8
 8001b66:	4c3b      	ldr	r4, [pc, #236]	; (8001c54 <__aeabi_dsub+0x364>)
 8001b68:	3001      	adds	r0, #1
 8001b6a:	4220      	tst	r0, r4
 8001b6c:	d000      	beq.n	8001b70 <__aeabi_dsub+0x280>
 8001b6e:	e0b4      	b.n	8001cda <__aeabi_dsub+0x3ea>
 8001b70:	4640      	mov	r0, r8
 8001b72:	2800      	cmp	r0, #0
 8001b74:	d000      	beq.n	8001b78 <__aeabi_dsub+0x288>
 8001b76:	e144      	b.n	8001e02 <__aeabi_dsub+0x512>
 8001b78:	4660      	mov	r0, ip
 8001b7a:	4318      	orrs	r0, r3
 8001b7c:	d100      	bne.n	8001b80 <__aeabi_dsub+0x290>
 8001b7e:	e190      	b.n	8001ea2 <__aeabi_dsub+0x5b2>
 8001b80:	0008      	movs	r0, r1
 8001b82:	4338      	orrs	r0, r7
 8001b84:	d000      	beq.n	8001b88 <__aeabi_dsub+0x298>
 8001b86:	e1aa      	b.n	8001ede <__aeabi_dsub+0x5ee>
 8001b88:	4661      	mov	r1, ip
 8001b8a:	08db      	lsrs	r3, r3, #3
 8001b8c:	0749      	lsls	r1, r1, #29
 8001b8e:	430b      	orrs	r3, r1
 8001b90:	4661      	mov	r1, ip
 8001b92:	08cc      	lsrs	r4, r1, #3
 8001b94:	e027      	b.n	8001be6 <__aeabi_dsub+0x2f6>
 8001b96:	0008      	movs	r0, r1
 8001b98:	4338      	orrs	r0, r7
 8001b9a:	d061      	beq.n	8001c60 <__aeabi_dsub+0x370>
 8001b9c:	1e50      	subs	r0, r2, #1
 8001b9e:	2a01      	cmp	r2, #1
 8001ba0:	d100      	bne.n	8001ba4 <__aeabi_dsub+0x2b4>
 8001ba2:	e139      	b.n	8001e18 <__aeabi_dsub+0x528>
 8001ba4:	42a2      	cmp	r2, r4
 8001ba6:	d027      	beq.n	8001bf8 <__aeabi_dsub+0x308>
 8001ba8:	0002      	movs	r2, r0
 8001baa:	e75d      	b.n	8001a68 <__aeabi_dsub+0x178>
 8001bac:	0002      	movs	r2, r0
 8001bae:	391f      	subs	r1, #31
 8001bb0:	40ca      	lsrs	r2, r1
 8001bb2:	0011      	movs	r1, r2
 8001bb4:	2b20      	cmp	r3, #32
 8001bb6:	d003      	beq.n	8001bc0 <__aeabi_dsub+0x2d0>
 8001bb8:	2240      	movs	r2, #64	; 0x40
 8001bba:	1ad3      	subs	r3, r2, r3
 8001bbc:	4098      	lsls	r0, r3
 8001bbe:	4304      	orrs	r4, r0
 8001bc0:	1e63      	subs	r3, r4, #1
 8001bc2:	419c      	sbcs	r4, r3
 8001bc4:	2300      	movs	r3, #0
 8001bc6:	4699      	mov	r9, r3
 8001bc8:	4698      	mov	r8, r3
 8001bca:	430c      	orrs	r4, r1
 8001bcc:	0763      	lsls	r3, r4, #29
 8001bce:	d000      	beq.n	8001bd2 <__aeabi_dsub+0x2e2>
 8001bd0:	e712      	b.n	80019f8 <__aeabi_dsub+0x108>
 8001bd2:	464b      	mov	r3, r9
 8001bd4:	464a      	mov	r2, r9
 8001bd6:	08e4      	lsrs	r4, r4, #3
 8001bd8:	075b      	lsls	r3, r3, #29
 8001bda:	4323      	orrs	r3, r4
 8001bdc:	08d4      	lsrs	r4, r2, #3
 8001bde:	4642      	mov	r2, r8
 8001be0:	4919      	ldr	r1, [pc, #100]	; (8001c48 <__aeabi_dsub+0x358>)
 8001be2:	428a      	cmp	r2, r1
 8001be4:	d00e      	beq.n	8001c04 <__aeabi_dsub+0x314>
 8001be6:	0324      	lsls	r4, r4, #12
 8001be8:	0552      	lsls	r2, r2, #21
 8001bea:	0b24      	lsrs	r4, r4, #12
 8001bec:	0d52      	lsrs	r2, r2, #21
 8001bee:	e722      	b.n	8001a36 <__aeabi_dsub+0x146>
 8001bf0:	000a      	movs	r2, r1
 8001bf2:	2400      	movs	r4, #0
 8001bf4:	2300      	movs	r3, #0
 8001bf6:	e71e      	b.n	8001a36 <__aeabi_dsub+0x146>
 8001bf8:	08db      	lsrs	r3, r3, #3
 8001bfa:	4662      	mov	r2, ip
 8001bfc:	0752      	lsls	r2, r2, #29
 8001bfe:	4313      	orrs	r3, r2
 8001c00:	4662      	mov	r2, ip
 8001c02:	08d4      	lsrs	r4, r2, #3
 8001c04:	001a      	movs	r2, r3
 8001c06:	4322      	orrs	r2, r4
 8001c08:	d100      	bne.n	8001c0c <__aeabi_dsub+0x31c>
 8001c0a:	e1fc      	b.n	8002006 <__aeabi_dsub+0x716>
 8001c0c:	2280      	movs	r2, #128	; 0x80
 8001c0e:	0312      	lsls	r2, r2, #12
 8001c10:	4314      	orrs	r4, r2
 8001c12:	0324      	lsls	r4, r4, #12
 8001c14:	4a0c      	ldr	r2, [pc, #48]	; (8001c48 <__aeabi_dsub+0x358>)
 8001c16:	0b24      	lsrs	r4, r4, #12
 8001c18:	e70d      	b.n	8001a36 <__aeabi_dsub+0x146>
 8001c1a:	0020      	movs	r0, r4
 8001c1c:	f000 fa86 	bl	800212c <__clzsi2>
 8001c20:	0001      	movs	r1, r0
 8001c22:	3118      	adds	r1, #24
 8001c24:	291f      	cmp	r1, #31
 8001c26:	dc00      	bgt.n	8001c2a <__aeabi_dsub+0x33a>
 8001c28:	e6c4      	b.n	80019b4 <__aeabi_dsub+0xc4>
 8001c2a:	3808      	subs	r0, #8
 8001c2c:	4084      	lsls	r4, r0
 8001c2e:	4643      	mov	r3, r8
 8001c30:	0020      	movs	r0, r4
 8001c32:	2400      	movs	r4, #0
 8001c34:	4588      	cmp	r8, r1
 8001c36:	dc00      	bgt.n	8001c3a <__aeabi_dsub+0x34a>
 8001c38:	e6c8      	b.n	80019cc <__aeabi_dsub+0xdc>
 8001c3a:	4a04      	ldr	r2, [pc, #16]	; (8001c4c <__aeabi_dsub+0x35c>)
 8001c3c:	1a5b      	subs	r3, r3, r1
 8001c3e:	4010      	ands	r0, r2
 8001c40:	4698      	mov	r8, r3
 8001c42:	4681      	mov	r9, r0
 8001c44:	e6d6      	b.n	80019f4 <__aeabi_dsub+0x104>
 8001c46:	46c0      	nop			; (mov r8, r8)
 8001c48:	000007ff 	.word	0x000007ff
 8001c4c:	ff7fffff 	.word	0xff7fffff
 8001c50:	fffff801 	.word	0xfffff801
 8001c54:	000007fe 	.word	0x000007fe
 8001c58:	430f      	orrs	r7, r1
 8001c5a:	1e7a      	subs	r2, r7, #1
 8001c5c:	4197      	sbcs	r7, r2
 8001c5e:	e691      	b.n	8001984 <__aeabi_dsub+0x94>
 8001c60:	4661      	mov	r1, ip
 8001c62:	08db      	lsrs	r3, r3, #3
 8001c64:	0749      	lsls	r1, r1, #29
 8001c66:	430b      	orrs	r3, r1
 8001c68:	4661      	mov	r1, ip
 8001c6a:	08cc      	lsrs	r4, r1, #3
 8001c6c:	e7b8      	b.n	8001be0 <__aeabi_dsub+0x2f0>
 8001c6e:	4640      	mov	r0, r8
 8001c70:	4cd3      	ldr	r4, [pc, #844]	; (8001fc0 <__aeabi_dsub+0x6d0>)
 8001c72:	3001      	adds	r0, #1
 8001c74:	4220      	tst	r0, r4
 8001c76:	d000      	beq.n	8001c7a <__aeabi_dsub+0x38a>
 8001c78:	e0a2      	b.n	8001dc0 <__aeabi_dsub+0x4d0>
 8001c7a:	4640      	mov	r0, r8
 8001c7c:	2800      	cmp	r0, #0
 8001c7e:	d000      	beq.n	8001c82 <__aeabi_dsub+0x392>
 8001c80:	e101      	b.n	8001e86 <__aeabi_dsub+0x596>
 8001c82:	4660      	mov	r0, ip
 8001c84:	4318      	orrs	r0, r3
 8001c86:	d100      	bne.n	8001c8a <__aeabi_dsub+0x39a>
 8001c88:	e15e      	b.n	8001f48 <__aeabi_dsub+0x658>
 8001c8a:	0008      	movs	r0, r1
 8001c8c:	4338      	orrs	r0, r7
 8001c8e:	d000      	beq.n	8001c92 <__aeabi_dsub+0x3a2>
 8001c90:	e15f      	b.n	8001f52 <__aeabi_dsub+0x662>
 8001c92:	4661      	mov	r1, ip
 8001c94:	08db      	lsrs	r3, r3, #3
 8001c96:	0749      	lsls	r1, r1, #29
 8001c98:	430b      	orrs	r3, r1
 8001c9a:	4661      	mov	r1, ip
 8001c9c:	08cc      	lsrs	r4, r1, #3
 8001c9e:	e7a2      	b.n	8001be6 <__aeabi_dsub+0x2f6>
 8001ca0:	4dc8      	ldr	r5, [pc, #800]	; (8001fc4 <__aeabi_dsub+0x6d4>)
 8001ca2:	42a8      	cmp	r0, r5
 8001ca4:	d100      	bne.n	8001ca8 <__aeabi_dsub+0x3b8>
 8001ca6:	e0cf      	b.n	8001e48 <__aeabi_dsub+0x558>
 8001ca8:	2580      	movs	r5, #128	; 0x80
 8001caa:	4664      	mov	r4, ip
 8001cac:	042d      	lsls	r5, r5, #16
 8001cae:	432c      	orrs	r4, r5
 8001cb0:	46a4      	mov	ip, r4
 8001cb2:	2a38      	cmp	r2, #56	; 0x38
 8001cb4:	dc56      	bgt.n	8001d64 <__aeabi_dsub+0x474>
 8001cb6:	2a1f      	cmp	r2, #31
 8001cb8:	dd00      	ble.n	8001cbc <__aeabi_dsub+0x3cc>
 8001cba:	e0d1      	b.n	8001e60 <__aeabi_dsub+0x570>
 8001cbc:	2520      	movs	r5, #32
 8001cbe:	001e      	movs	r6, r3
 8001cc0:	1aad      	subs	r5, r5, r2
 8001cc2:	4664      	mov	r4, ip
 8001cc4:	40ab      	lsls	r3, r5
 8001cc6:	40ac      	lsls	r4, r5
 8001cc8:	40d6      	lsrs	r6, r2
 8001cca:	1e5d      	subs	r5, r3, #1
 8001ccc:	41ab      	sbcs	r3, r5
 8001cce:	4334      	orrs	r4, r6
 8001cd0:	4323      	orrs	r3, r4
 8001cd2:	4664      	mov	r4, ip
 8001cd4:	40d4      	lsrs	r4, r2
 8001cd6:	1b09      	subs	r1, r1, r4
 8001cd8:	e049      	b.n	8001d6e <__aeabi_dsub+0x47e>
 8001cda:	4660      	mov	r0, ip
 8001cdc:	1bdc      	subs	r4, r3, r7
 8001cde:	1a46      	subs	r6, r0, r1
 8001ce0:	42a3      	cmp	r3, r4
 8001ce2:	4180      	sbcs	r0, r0
 8001ce4:	4240      	negs	r0, r0
 8001ce6:	4681      	mov	r9, r0
 8001ce8:	0030      	movs	r0, r6
 8001cea:	464e      	mov	r6, r9
 8001cec:	1b80      	subs	r0, r0, r6
 8001cee:	4681      	mov	r9, r0
 8001cf0:	0200      	lsls	r0, r0, #8
 8001cf2:	d476      	bmi.n	8001de2 <__aeabi_dsub+0x4f2>
 8001cf4:	464b      	mov	r3, r9
 8001cf6:	4323      	orrs	r3, r4
 8001cf8:	d000      	beq.n	8001cfc <__aeabi_dsub+0x40c>
 8001cfa:	e652      	b.n	80019a2 <__aeabi_dsub+0xb2>
 8001cfc:	2400      	movs	r4, #0
 8001cfe:	2500      	movs	r5, #0
 8001d00:	e771      	b.n	8001be6 <__aeabi_dsub+0x2f6>
 8001d02:	4339      	orrs	r1, r7
 8001d04:	000c      	movs	r4, r1
 8001d06:	1e62      	subs	r2, r4, #1
 8001d08:	4194      	sbcs	r4, r2
 8001d0a:	18e4      	adds	r4, r4, r3
 8001d0c:	429c      	cmp	r4, r3
 8001d0e:	419b      	sbcs	r3, r3
 8001d10:	425b      	negs	r3, r3
 8001d12:	4463      	add	r3, ip
 8001d14:	4699      	mov	r9, r3
 8001d16:	464b      	mov	r3, r9
 8001d18:	021b      	lsls	r3, r3, #8
 8001d1a:	d400      	bmi.n	8001d1e <__aeabi_dsub+0x42e>
 8001d1c:	e756      	b.n	8001bcc <__aeabi_dsub+0x2dc>
 8001d1e:	2301      	movs	r3, #1
 8001d20:	469c      	mov	ip, r3
 8001d22:	4ba8      	ldr	r3, [pc, #672]	; (8001fc4 <__aeabi_dsub+0x6d4>)
 8001d24:	44e0      	add	r8, ip
 8001d26:	4598      	cmp	r8, r3
 8001d28:	d038      	beq.n	8001d9c <__aeabi_dsub+0x4ac>
 8001d2a:	464b      	mov	r3, r9
 8001d2c:	48a6      	ldr	r0, [pc, #664]	; (8001fc8 <__aeabi_dsub+0x6d8>)
 8001d2e:	2201      	movs	r2, #1
 8001d30:	4003      	ands	r3, r0
 8001d32:	0018      	movs	r0, r3
 8001d34:	0863      	lsrs	r3, r4, #1
 8001d36:	4014      	ands	r4, r2
 8001d38:	431c      	orrs	r4, r3
 8001d3a:	07c3      	lsls	r3, r0, #31
 8001d3c:	431c      	orrs	r4, r3
 8001d3e:	0843      	lsrs	r3, r0, #1
 8001d40:	4699      	mov	r9, r3
 8001d42:	e657      	b.n	80019f4 <__aeabi_dsub+0x104>
 8001d44:	0010      	movs	r0, r2
 8001d46:	000e      	movs	r6, r1
 8001d48:	3820      	subs	r0, #32
 8001d4a:	40c6      	lsrs	r6, r0
 8001d4c:	2a20      	cmp	r2, #32
 8001d4e:	d004      	beq.n	8001d5a <__aeabi_dsub+0x46a>
 8001d50:	2040      	movs	r0, #64	; 0x40
 8001d52:	1a82      	subs	r2, r0, r2
 8001d54:	4091      	lsls	r1, r2
 8001d56:	430f      	orrs	r7, r1
 8001d58:	46b9      	mov	r9, r7
 8001d5a:	464f      	mov	r7, r9
 8001d5c:	1e7a      	subs	r2, r7, #1
 8001d5e:	4197      	sbcs	r7, r2
 8001d60:	4337      	orrs	r7, r6
 8001d62:	e60f      	b.n	8001984 <__aeabi_dsub+0x94>
 8001d64:	4662      	mov	r2, ip
 8001d66:	431a      	orrs	r2, r3
 8001d68:	0013      	movs	r3, r2
 8001d6a:	1e5a      	subs	r2, r3, #1
 8001d6c:	4193      	sbcs	r3, r2
 8001d6e:	1afc      	subs	r4, r7, r3
 8001d70:	42a7      	cmp	r7, r4
 8001d72:	41bf      	sbcs	r7, r7
 8001d74:	427f      	negs	r7, r7
 8001d76:	1bcb      	subs	r3, r1, r7
 8001d78:	4699      	mov	r9, r3
 8001d7a:	465d      	mov	r5, fp
 8001d7c:	4680      	mov	r8, r0
 8001d7e:	e608      	b.n	8001992 <__aeabi_dsub+0xa2>
 8001d80:	4666      	mov	r6, ip
 8001d82:	431e      	orrs	r6, r3
 8001d84:	d100      	bne.n	8001d88 <__aeabi_dsub+0x498>
 8001d86:	e0be      	b.n	8001f06 <__aeabi_dsub+0x616>
 8001d88:	1e56      	subs	r6, r2, #1
 8001d8a:	2a01      	cmp	r2, #1
 8001d8c:	d100      	bne.n	8001d90 <__aeabi_dsub+0x4a0>
 8001d8e:	e109      	b.n	8001fa4 <__aeabi_dsub+0x6b4>
 8001d90:	4c8c      	ldr	r4, [pc, #560]	; (8001fc4 <__aeabi_dsub+0x6d4>)
 8001d92:	42a2      	cmp	r2, r4
 8001d94:	d100      	bne.n	8001d98 <__aeabi_dsub+0x4a8>
 8001d96:	e119      	b.n	8001fcc <__aeabi_dsub+0x6dc>
 8001d98:	0032      	movs	r2, r6
 8001d9a:	e6c1      	b.n	8001b20 <__aeabi_dsub+0x230>
 8001d9c:	4642      	mov	r2, r8
 8001d9e:	2400      	movs	r4, #0
 8001da0:	2300      	movs	r3, #0
 8001da2:	e648      	b.n	8001a36 <__aeabi_dsub+0x146>
 8001da4:	2020      	movs	r0, #32
 8001da6:	000c      	movs	r4, r1
 8001da8:	1a80      	subs	r0, r0, r2
 8001daa:	003e      	movs	r6, r7
 8001dac:	4087      	lsls	r7, r0
 8001dae:	4084      	lsls	r4, r0
 8001db0:	40d6      	lsrs	r6, r2
 8001db2:	1e78      	subs	r0, r7, #1
 8001db4:	4187      	sbcs	r7, r0
 8001db6:	40d1      	lsrs	r1, r2
 8001db8:	4334      	orrs	r4, r6
 8001dba:	433c      	orrs	r4, r7
 8001dbc:	448c      	add	ip, r1
 8001dbe:	e7a4      	b.n	8001d0a <__aeabi_dsub+0x41a>
 8001dc0:	4a80      	ldr	r2, [pc, #512]	; (8001fc4 <__aeabi_dsub+0x6d4>)
 8001dc2:	4290      	cmp	r0, r2
 8001dc4:	d100      	bne.n	8001dc8 <__aeabi_dsub+0x4d8>
 8001dc6:	e0e9      	b.n	8001f9c <__aeabi_dsub+0x6ac>
 8001dc8:	19df      	adds	r7, r3, r7
 8001dca:	429f      	cmp	r7, r3
 8001dcc:	419b      	sbcs	r3, r3
 8001dce:	4461      	add	r1, ip
 8001dd0:	425b      	negs	r3, r3
 8001dd2:	18c9      	adds	r1, r1, r3
 8001dd4:	07cc      	lsls	r4, r1, #31
 8001dd6:	087f      	lsrs	r7, r7, #1
 8001dd8:	084b      	lsrs	r3, r1, #1
 8001dda:	4699      	mov	r9, r3
 8001ddc:	4680      	mov	r8, r0
 8001dde:	433c      	orrs	r4, r7
 8001de0:	e6f4      	b.n	8001bcc <__aeabi_dsub+0x2dc>
 8001de2:	1afc      	subs	r4, r7, r3
 8001de4:	42a7      	cmp	r7, r4
 8001de6:	41bf      	sbcs	r7, r7
 8001de8:	4663      	mov	r3, ip
 8001dea:	427f      	negs	r7, r7
 8001dec:	1ac9      	subs	r1, r1, r3
 8001dee:	1bcb      	subs	r3, r1, r7
 8001df0:	4699      	mov	r9, r3
 8001df2:	465d      	mov	r5, fp
 8001df4:	e5d5      	b.n	80019a2 <__aeabi_dsub+0xb2>
 8001df6:	08ff      	lsrs	r7, r7, #3
 8001df8:	074b      	lsls	r3, r1, #29
 8001dfa:	465d      	mov	r5, fp
 8001dfc:	433b      	orrs	r3, r7
 8001dfe:	08cc      	lsrs	r4, r1, #3
 8001e00:	e6ee      	b.n	8001be0 <__aeabi_dsub+0x2f0>
 8001e02:	4662      	mov	r2, ip
 8001e04:	431a      	orrs	r2, r3
 8001e06:	d000      	beq.n	8001e0a <__aeabi_dsub+0x51a>
 8001e08:	e082      	b.n	8001f10 <__aeabi_dsub+0x620>
 8001e0a:	000b      	movs	r3, r1
 8001e0c:	433b      	orrs	r3, r7
 8001e0e:	d11b      	bne.n	8001e48 <__aeabi_dsub+0x558>
 8001e10:	2480      	movs	r4, #128	; 0x80
 8001e12:	2500      	movs	r5, #0
 8001e14:	0324      	lsls	r4, r4, #12
 8001e16:	e6f9      	b.n	8001c0c <__aeabi_dsub+0x31c>
 8001e18:	19dc      	adds	r4, r3, r7
 8001e1a:	429c      	cmp	r4, r3
 8001e1c:	419b      	sbcs	r3, r3
 8001e1e:	4461      	add	r1, ip
 8001e20:	4689      	mov	r9, r1
 8001e22:	425b      	negs	r3, r3
 8001e24:	4499      	add	r9, r3
 8001e26:	464b      	mov	r3, r9
 8001e28:	021b      	lsls	r3, r3, #8
 8001e2a:	d444      	bmi.n	8001eb6 <__aeabi_dsub+0x5c6>
 8001e2c:	2301      	movs	r3, #1
 8001e2e:	4698      	mov	r8, r3
 8001e30:	e6cc      	b.n	8001bcc <__aeabi_dsub+0x2dc>
 8001e32:	1bdc      	subs	r4, r3, r7
 8001e34:	4662      	mov	r2, ip
 8001e36:	42a3      	cmp	r3, r4
 8001e38:	419b      	sbcs	r3, r3
 8001e3a:	1a51      	subs	r1, r2, r1
 8001e3c:	425b      	negs	r3, r3
 8001e3e:	1acb      	subs	r3, r1, r3
 8001e40:	4699      	mov	r9, r3
 8001e42:	2301      	movs	r3, #1
 8001e44:	4698      	mov	r8, r3
 8001e46:	e5a4      	b.n	8001992 <__aeabi_dsub+0xa2>
 8001e48:	08ff      	lsrs	r7, r7, #3
 8001e4a:	074b      	lsls	r3, r1, #29
 8001e4c:	465d      	mov	r5, fp
 8001e4e:	433b      	orrs	r3, r7
 8001e50:	08cc      	lsrs	r4, r1, #3
 8001e52:	e6d7      	b.n	8001c04 <__aeabi_dsub+0x314>
 8001e54:	4662      	mov	r2, ip
 8001e56:	431a      	orrs	r2, r3
 8001e58:	0014      	movs	r4, r2
 8001e5a:	1e63      	subs	r3, r4, #1
 8001e5c:	419c      	sbcs	r4, r3
 8001e5e:	e679      	b.n	8001b54 <__aeabi_dsub+0x264>
 8001e60:	0015      	movs	r5, r2
 8001e62:	4664      	mov	r4, ip
 8001e64:	3d20      	subs	r5, #32
 8001e66:	40ec      	lsrs	r4, r5
 8001e68:	46a0      	mov	r8, r4
 8001e6a:	2a20      	cmp	r2, #32
 8001e6c:	d005      	beq.n	8001e7a <__aeabi_dsub+0x58a>
 8001e6e:	2540      	movs	r5, #64	; 0x40
 8001e70:	4664      	mov	r4, ip
 8001e72:	1aaa      	subs	r2, r5, r2
 8001e74:	4094      	lsls	r4, r2
 8001e76:	4323      	orrs	r3, r4
 8001e78:	469a      	mov	sl, r3
 8001e7a:	4654      	mov	r4, sl
 8001e7c:	1e63      	subs	r3, r4, #1
 8001e7e:	419c      	sbcs	r4, r3
 8001e80:	4643      	mov	r3, r8
 8001e82:	4323      	orrs	r3, r4
 8001e84:	e773      	b.n	8001d6e <__aeabi_dsub+0x47e>
 8001e86:	4662      	mov	r2, ip
 8001e88:	431a      	orrs	r2, r3
 8001e8a:	d023      	beq.n	8001ed4 <__aeabi_dsub+0x5e4>
 8001e8c:	000a      	movs	r2, r1
 8001e8e:	433a      	orrs	r2, r7
 8001e90:	d000      	beq.n	8001e94 <__aeabi_dsub+0x5a4>
 8001e92:	e0a0      	b.n	8001fd6 <__aeabi_dsub+0x6e6>
 8001e94:	4662      	mov	r2, ip
 8001e96:	08db      	lsrs	r3, r3, #3
 8001e98:	0752      	lsls	r2, r2, #29
 8001e9a:	4313      	orrs	r3, r2
 8001e9c:	4662      	mov	r2, ip
 8001e9e:	08d4      	lsrs	r4, r2, #3
 8001ea0:	e6b0      	b.n	8001c04 <__aeabi_dsub+0x314>
 8001ea2:	000b      	movs	r3, r1
 8001ea4:	433b      	orrs	r3, r7
 8001ea6:	d100      	bne.n	8001eaa <__aeabi_dsub+0x5ba>
 8001ea8:	e728      	b.n	8001cfc <__aeabi_dsub+0x40c>
 8001eaa:	08ff      	lsrs	r7, r7, #3
 8001eac:	074b      	lsls	r3, r1, #29
 8001eae:	465d      	mov	r5, fp
 8001eb0:	433b      	orrs	r3, r7
 8001eb2:	08cc      	lsrs	r4, r1, #3
 8001eb4:	e697      	b.n	8001be6 <__aeabi_dsub+0x2f6>
 8001eb6:	2302      	movs	r3, #2
 8001eb8:	4698      	mov	r8, r3
 8001eba:	e736      	b.n	8001d2a <__aeabi_dsub+0x43a>
 8001ebc:	1afc      	subs	r4, r7, r3
 8001ebe:	42a7      	cmp	r7, r4
 8001ec0:	41bf      	sbcs	r7, r7
 8001ec2:	4663      	mov	r3, ip
 8001ec4:	427f      	negs	r7, r7
 8001ec6:	1ac9      	subs	r1, r1, r3
 8001ec8:	1bcb      	subs	r3, r1, r7
 8001eca:	4699      	mov	r9, r3
 8001ecc:	2301      	movs	r3, #1
 8001ece:	465d      	mov	r5, fp
 8001ed0:	4698      	mov	r8, r3
 8001ed2:	e55e      	b.n	8001992 <__aeabi_dsub+0xa2>
 8001ed4:	074b      	lsls	r3, r1, #29
 8001ed6:	08ff      	lsrs	r7, r7, #3
 8001ed8:	433b      	orrs	r3, r7
 8001eda:	08cc      	lsrs	r4, r1, #3
 8001edc:	e692      	b.n	8001c04 <__aeabi_dsub+0x314>
 8001ede:	1bdc      	subs	r4, r3, r7
 8001ee0:	4660      	mov	r0, ip
 8001ee2:	42a3      	cmp	r3, r4
 8001ee4:	41b6      	sbcs	r6, r6
 8001ee6:	1a40      	subs	r0, r0, r1
 8001ee8:	4276      	negs	r6, r6
 8001eea:	1b80      	subs	r0, r0, r6
 8001eec:	4681      	mov	r9, r0
 8001eee:	0200      	lsls	r0, r0, #8
 8001ef0:	d560      	bpl.n	8001fb4 <__aeabi_dsub+0x6c4>
 8001ef2:	1afc      	subs	r4, r7, r3
 8001ef4:	42a7      	cmp	r7, r4
 8001ef6:	41bf      	sbcs	r7, r7
 8001ef8:	4663      	mov	r3, ip
 8001efa:	427f      	negs	r7, r7
 8001efc:	1ac9      	subs	r1, r1, r3
 8001efe:	1bcb      	subs	r3, r1, r7
 8001f00:	4699      	mov	r9, r3
 8001f02:	465d      	mov	r5, fp
 8001f04:	e576      	b.n	80019f4 <__aeabi_dsub+0x104>
 8001f06:	08ff      	lsrs	r7, r7, #3
 8001f08:	074b      	lsls	r3, r1, #29
 8001f0a:	433b      	orrs	r3, r7
 8001f0c:	08cc      	lsrs	r4, r1, #3
 8001f0e:	e667      	b.n	8001be0 <__aeabi_dsub+0x2f0>
 8001f10:	000a      	movs	r2, r1
 8001f12:	08db      	lsrs	r3, r3, #3
 8001f14:	433a      	orrs	r2, r7
 8001f16:	d100      	bne.n	8001f1a <__aeabi_dsub+0x62a>
 8001f18:	e66f      	b.n	8001bfa <__aeabi_dsub+0x30a>
 8001f1a:	4662      	mov	r2, ip
 8001f1c:	0752      	lsls	r2, r2, #29
 8001f1e:	4313      	orrs	r3, r2
 8001f20:	4662      	mov	r2, ip
 8001f22:	08d4      	lsrs	r4, r2, #3
 8001f24:	2280      	movs	r2, #128	; 0x80
 8001f26:	0312      	lsls	r2, r2, #12
 8001f28:	4214      	tst	r4, r2
 8001f2a:	d007      	beq.n	8001f3c <__aeabi_dsub+0x64c>
 8001f2c:	08c8      	lsrs	r0, r1, #3
 8001f2e:	4210      	tst	r0, r2
 8001f30:	d104      	bne.n	8001f3c <__aeabi_dsub+0x64c>
 8001f32:	465d      	mov	r5, fp
 8001f34:	0004      	movs	r4, r0
 8001f36:	08fb      	lsrs	r3, r7, #3
 8001f38:	0749      	lsls	r1, r1, #29
 8001f3a:	430b      	orrs	r3, r1
 8001f3c:	0f5a      	lsrs	r2, r3, #29
 8001f3e:	00db      	lsls	r3, r3, #3
 8001f40:	08db      	lsrs	r3, r3, #3
 8001f42:	0752      	lsls	r2, r2, #29
 8001f44:	4313      	orrs	r3, r2
 8001f46:	e65d      	b.n	8001c04 <__aeabi_dsub+0x314>
 8001f48:	074b      	lsls	r3, r1, #29
 8001f4a:	08ff      	lsrs	r7, r7, #3
 8001f4c:	433b      	orrs	r3, r7
 8001f4e:	08cc      	lsrs	r4, r1, #3
 8001f50:	e649      	b.n	8001be6 <__aeabi_dsub+0x2f6>
 8001f52:	19dc      	adds	r4, r3, r7
 8001f54:	429c      	cmp	r4, r3
 8001f56:	419b      	sbcs	r3, r3
 8001f58:	4461      	add	r1, ip
 8001f5a:	4689      	mov	r9, r1
 8001f5c:	425b      	negs	r3, r3
 8001f5e:	4499      	add	r9, r3
 8001f60:	464b      	mov	r3, r9
 8001f62:	021b      	lsls	r3, r3, #8
 8001f64:	d400      	bmi.n	8001f68 <__aeabi_dsub+0x678>
 8001f66:	e631      	b.n	8001bcc <__aeabi_dsub+0x2dc>
 8001f68:	464a      	mov	r2, r9
 8001f6a:	4b17      	ldr	r3, [pc, #92]	; (8001fc8 <__aeabi_dsub+0x6d8>)
 8001f6c:	401a      	ands	r2, r3
 8001f6e:	2301      	movs	r3, #1
 8001f70:	4691      	mov	r9, r2
 8001f72:	4698      	mov	r8, r3
 8001f74:	e62a      	b.n	8001bcc <__aeabi_dsub+0x2dc>
 8001f76:	0016      	movs	r6, r2
 8001f78:	4664      	mov	r4, ip
 8001f7a:	3e20      	subs	r6, #32
 8001f7c:	40f4      	lsrs	r4, r6
 8001f7e:	46a0      	mov	r8, r4
 8001f80:	2a20      	cmp	r2, #32
 8001f82:	d005      	beq.n	8001f90 <__aeabi_dsub+0x6a0>
 8001f84:	2640      	movs	r6, #64	; 0x40
 8001f86:	4664      	mov	r4, ip
 8001f88:	1ab2      	subs	r2, r6, r2
 8001f8a:	4094      	lsls	r4, r2
 8001f8c:	4323      	orrs	r3, r4
 8001f8e:	469a      	mov	sl, r3
 8001f90:	4654      	mov	r4, sl
 8001f92:	1e63      	subs	r3, r4, #1
 8001f94:	419c      	sbcs	r4, r3
 8001f96:	4643      	mov	r3, r8
 8001f98:	431c      	orrs	r4, r3
 8001f9a:	e5db      	b.n	8001b54 <__aeabi_dsub+0x264>
 8001f9c:	0002      	movs	r2, r0
 8001f9e:	2400      	movs	r4, #0
 8001fa0:	2300      	movs	r3, #0
 8001fa2:	e548      	b.n	8001a36 <__aeabi_dsub+0x146>
 8001fa4:	19dc      	adds	r4, r3, r7
 8001fa6:	42bc      	cmp	r4, r7
 8001fa8:	41bf      	sbcs	r7, r7
 8001faa:	4461      	add	r1, ip
 8001fac:	4689      	mov	r9, r1
 8001fae:	427f      	negs	r7, r7
 8001fb0:	44b9      	add	r9, r7
 8001fb2:	e738      	b.n	8001e26 <__aeabi_dsub+0x536>
 8001fb4:	464b      	mov	r3, r9
 8001fb6:	4323      	orrs	r3, r4
 8001fb8:	d100      	bne.n	8001fbc <__aeabi_dsub+0x6cc>
 8001fba:	e69f      	b.n	8001cfc <__aeabi_dsub+0x40c>
 8001fbc:	e606      	b.n	8001bcc <__aeabi_dsub+0x2dc>
 8001fbe:	46c0      	nop			; (mov r8, r8)
 8001fc0:	000007fe 	.word	0x000007fe
 8001fc4:	000007ff 	.word	0x000007ff
 8001fc8:	ff7fffff 	.word	0xff7fffff
 8001fcc:	08ff      	lsrs	r7, r7, #3
 8001fce:	074b      	lsls	r3, r1, #29
 8001fd0:	433b      	orrs	r3, r7
 8001fd2:	08cc      	lsrs	r4, r1, #3
 8001fd4:	e616      	b.n	8001c04 <__aeabi_dsub+0x314>
 8001fd6:	4662      	mov	r2, ip
 8001fd8:	08db      	lsrs	r3, r3, #3
 8001fda:	0752      	lsls	r2, r2, #29
 8001fdc:	4313      	orrs	r3, r2
 8001fde:	4662      	mov	r2, ip
 8001fe0:	08d4      	lsrs	r4, r2, #3
 8001fe2:	2280      	movs	r2, #128	; 0x80
 8001fe4:	0312      	lsls	r2, r2, #12
 8001fe6:	4214      	tst	r4, r2
 8001fe8:	d007      	beq.n	8001ffa <__aeabi_dsub+0x70a>
 8001fea:	08c8      	lsrs	r0, r1, #3
 8001fec:	4210      	tst	r0, r2
 8001fee:	d104      	bne.n	8001ffa <__aeabi_dsub+0x70a>
 8001ff0:	465d      	mov	r5, fp
 8001ff2:	0004      	movs	r4, r0
 8001ff4:	08fb      	lsrs	r3, r7, #3
 8001ff6:	0749      	lsls	r1, r1, #29
 8001ff8:	430b      	orrs	r3, r1
 8001ffa:	0f5a      	lsrs	r2, r3, #29
 8001ffc:	00db      	lsls	r3, r3, #3
 8001ffe:	0752      	lsls	r2, r2, #29
 8002000:	08db      	lsrs	r3, r3, #3
 8002002:	4313      	orrs	r3, r2
 8002004:	e5fe      	b.n	8001c04 <__aeabi_dsub+0x314>
 8002006:	2300      	movs	r3, #0
 8002008:	4a01      	ldr	r2, [pc, #4]	; (8002010 <__aeabi_dsub+0x720>)
 800200a:	001c      	movs	r4, r3
 800200c:	e513      	b.n	8001a36 <__aeabi_dsub+0x146>
 800200e:	46c0      	nop			; (mov r8, r8)
 8002010:	000007ff 	.word	0x000007ff

08002014 <__aeabi_d2iz>:
 8002014:	000a      	movs	r2, r1
 8002016:	b530      	push	{r4, r5, lr}
 8002018:	4c13      	ldr	r4, [pc, #76]	; (8002068 <__aeabi_d2iz+0x54>)
 800201a:	0053      	lsls	r3, r2, #1
 800201c:	0309      	lsls	r1, r1, #12
 800201e:	0005      	movs	r5, r0
 8002020:	0b09      	lsrs	r1, r1, #12
 8002022:	2000      	movs	r0, #0
 8002024:	0d5b      	lsrs	r3, r3, #21
 8002026:	0fd2      	lsrs	r2, r2, #31
 8002028:	42a3      	cmp	r3, r4
 800202a:	dd04      	ble.n	8002036 <__aeabi_d2iz+0x22>
 800202c:	480f      	ldr	r0, [pc, #60]	; (800206c <__aeabi_d2iz+0x58>)
 800202e:	4283      	cmp	r3, r0
 8002030:	dd02      	ble.n	8002038 <__aeabi_d2iz+0x24>
 8002032:	4b0f      	ldr	r3, [pc, #60]	; (8002070 <__aeabi_d2iz+0x5c>)
 8002034:	18d0      	adds	r0, r2, r3
 8002036:	bd30      	pop	{r4, r5, pc}
 8002038:	2080      	movs	r0, #128	; 0x80
 800203a:	0340      	lsls	r0, r0, #13
 800203c:	4301      	orrs	r1, r0
 800203e:	480d      	ldr	r0, [pc, #52]	; (8002074 <__aeabi_d2iz+0x60>)
 8002040:	1ac0      	subs	r0, r0, r3
 8002042:	281f      	cmp	r0, #31
 8002044:	dd08      	ble.n	8002058 <__aeabi_d2iz+0x44>
 8002046:	480c      	ldr	r0, [pc, #48]	; (8002078 <__aeabi_d2iz+0x64>)
 8002048:	1ac3      	subs	r3, r0, r3
 800204a:	40d9      	lsrs	r1, r3
 800204c:	000b      	movs	r3, r1
 800204e:	4258      	negs	r0, r3
 8002050:	2a00      	cmp	r2, #0
 8002052:	d1f0      	bne.n	8002036 <__aeabi_d2iz+0x22>
 8002054:	0018      	movs	r0, r3
 8002056:	e7ee      	b.n	8002036 <__aeabi_d2iz+0x22>
 8002058:	4c08      	ldr	r4, [pc, #32]	; (800207c <__aeabi_d2iz+0x68>)
 800205a:	40c5      	lsrs	r5, r0
 800205c:	46a4      	mov	ip, r4
 800205e:	4463      	add	r3, ip
 8002060:	4099      	lsls	r1, r3
 8002062:	000b      	movs	r3, r1
 8002064:	432b      	orrs	r3, r5
 8002066:	e7f2      	b.n	800204e <__aeabi_d2iz+0x3a>
 8002068:	000003fe 	.word	0x000003fe
 800206c:	0000041d 	.word	0x0000041d
 8002070:	7fffffff 	.word	0x7fffffff
 8002074:	00000433 	.word	0x00000433
 8002078:	00000413 	.word	0x00000413
 800207c:	fffffbed 	.word	0xfffffbed

08002080 <__aeabi_i2d>:
 8002080:	b570      	push	{r4, r5, r6, lr}
 8002082:	2800      	cmp	r0, #0
 8002084:	d016      	beq.n	80020b4 <__aeabi_i2d+0x34>
 8002086:	17c3      	asrs	r3, r0, #31
 8002088:	18c5      	adds	r5, r0, r3
 800208a:	405d      	eors	r5, r3
 800208c:	0fc4      	lsrs	r4, r0, #31
 800208e:	0028      	movs	r0, r5
 8002090:	f000 f84c 	bl	800212c <__clzsi2>
 8002094:	4a11      	ldr	r2, [pc, #68]	; (80020dc <__aeabi_i2d+0x5c>)
 8002096:	1a12      	subs	r2, r2, r0
 8002098:	280a      	cmp	r0, #10
 800209a:	dc16      	bgt.n	80020ca <__aeabi_i2d+0x4a>
 800209c:	0003      	movs	r3, r0
 800209e:	002e      	movs	r6, r5
 80020a0:	3315      	adds	r3, #21
 80020a2:	409e      	lsls	r6, r3
 80020a4:	230b      	movs	r3, #11
 80020a6:	1a18      	subs	r0, r3, r0
 80020a8:	40c5      	lsrs	r5, r0
 80020aa:	0552      	lsls	r2, r2, #21
 80020ac:	032d      	lsls	r5, r5, #12
 80020ae:	0b2d      	lsrs	r5, r5, #12
 80020b0:	0d53      	lsrs	r3, r2, #21
 80020b2:	e003      	b.n	80020bc <__aeabi_i2d+0x3c>
 80020b4:	2400      	movs	r4, #0
 80020b6:	2300      	movs	r3, #0
 80020b8:	2500      	movs	r5, #0
 80020ba:	2600      	movs	r6, #0
 80020bc:	051b      	lsls	r3, r3, #20
 80020be:	432b      	orrs	r3, r5
 80020c0:	07e4      	lsls	r4, r4, #31
 80020c2:	4323      	orrs	r3, r4
 80020c4:	0030      	movs	r0, r6
 80020c6:	0019      	movs	r1, r3
 80020c8:	bd70      	pop	{r4, r5, r6, pc}
 80020ca:	380b      	subs	r0, #11
 80020cc:	4085      	lsls	r5, r0
 80020ce:	0552      	lsls	r2, r2, #21
 80020d0:	032d      	lsls	r5, r5, #12
 80020d2:	2600      	movs	r6, #0
 80020d4:	0b2d      	lsrs	r5, r5, #12
 80020d6:	0d53      	lsrs	r3, r2, #21
 80020d8:	e7f0      	b.n	80020bc <__aeabi_i2d+0x3c>
 80020da:	46c0      	nop			; (mov r8, r8)
 80020dc:	0000041e 	.word	0x0000041e

080020e0 <__aeabi_ui2d>:
 80020e0:	b510      	push	{r4, lr}
 80020e2:	1e04      	subs	r4, r0, #0
 80020e4:	d010      	beq.n	8002108 <__aeabi_ui2d+0x28>
 80020e6:	f000 f821 	bl	800212c <__clzsi2>
 80020ea:	4b0f      	ldr	r3, [pc, #60]	; (8002128 <__aeabi_ui2d+0x48>)
 80020ec:	1a1b      	subs	r3, r3, r0
 80020ee:	280a      	cmp	r0, #10
 80020f0:	dc11      	bgt.n	8002116 <__aeabi_ui2d+0x36>
 80020f2:	220b      	movs	r2, #11
 80020f4:	0021      	movs	r1, r4
 80020f6:	1a12      	subs	r2, r2, r0
 80020f8:	40d1      	lsrs	r1, r2
 80020fa:	3015      	adds	r0, #21
 80020fc:	030a      	lsls	r2, r1, #12
 80020fe:	055b      	lsls	r3, r3, #21
 8002100:	4084      	lsls	r4, r0
 8002102:	0b12      	lsrs	r2, r2, #12
 8002104:	0d5b      	lsrs	r3, r3, #21
 8002106:	e001      	b.n	800210c <__aeabi_ui2d+0x2c>
 8002108:	2300      	movs	r3, #0
 800210a:	2200      	movs	r2, #0
 800210c:	051b      	lsls	r3, r3, #20
 800210e:	4313      	orrs	r3, r2
 8002110:	0020      	movs	r0, r4
 8002112:	0019      	movs	r1, r3
 8002114:	bd10      	pop	{r4, pc}
 8002116:	0022      	movs	r2, r4
 8002118:	380b      	subs	r0, #11
 800211a:	4082      	lsls	r2, r0
 800211c:	055b      	lsls	r3, r3, #21
 800211e:	0312      	lsls	r2, r2, #12
 8002120:	2400      	movs	r4, #0
 8002122:	0b12      	lsrs	r2, r2, #12
 8002124:	0d5b      	lsrs	r3, r3, #21
 8002126:	e7f1      	b.n	800210c <__aeabi_ui2d+0x2c>
 8002128:	0000041e 	.word	0x0000041e

0800212c <__clzsi2>:
 800212c:	211c      	movs	r1, #28
 800212e:	2301      	movs	r3, #1
 8002130:	041b      	lsls	r3, r3, #16
 8002132:	4298      	cmp	r0, r3
 8002134:	d301      	bcc.n	800213a <__clzsi2+0xe>
 8002136:	0c00      	lsrs	r0, r0, #16
 8002138:	3910      	subs	r1, #16
 800213a:	0a1b      	lsrs	r3, r3, #8
 800213c:	4298      	cmp	r0, r3
 800213e:	d301      	bcc.n	8002144 <__clzsi2+0x18>
 8002140:	0a00      	lsrs	r0, r0, #8
 8002142:	3908      	subs	r1, #8
 8002144:	091b      	lsrs	r3, r3, #4
 8002146:	4298      	cmp	r0, r3
 8002148:	d301      	bcc.n	800214e <__clzsi2+0x22>
 800214a:	0900      	lsrs	r0, r0, #4
 800214c:	3904      	subs	r1, #4
 800214e:	a202      	add	r2, pc, #8	; (adr r2, 8002158 <__clzsi2+0x2c>)
 8002150:	5c10      	ldrb	r0, [r2, r0]
 8002152:	1840      	adds	r0, r0, r1
 8002154:	4770      	bx	lr
 8002156:	46c0      	nop			; (mov r8, r8)
 8002158:	02020304 	.word	0x02020304
 800215c:	01010101 	.word	0x01010101
	...

08002168 <__clzdi2>:
 8002168:	b510      	push	{r4, lr}
 800216a:	2900      	cmp	r1, #0
 800216c:	d103      	bne.n	8002176 <__clzdi2+0xe>
 800216e:	f7ff ffdd 	bl	800212c <__clzsi2>
 8002172:	3020      	adds	r0, #32
 8002174:	e002      	b.n	800217c <__clzdi2+0x14>
 8002176:	0008      	movs	r0, r1
 8002178:	f7ff ffd8 	bl	800212c <__clzsi2>
 800217c:	bd10      	pop	{r4, pc}
 800217e:	46c0      	nop			; (mov r8, r8)

08002180 <__aeabi_lmul>:
 8002180:	b5f0      	push	{r4, r5, r6, r7, lr}
 8002182:	46ce      	mov	lr, r9
 8002184:	4647      	mov	r7, r8
 8002186:	b580      	push	{r7, lr}
 8002188:	0007      	movs	r7, r0
 800218a:	4699      	mov	r9, r3
 800218c:	0c3b      	lsrs	r3, r7, #16
 800218e:	469c      	mov	ip, r3
 8002190:	0413      	lsls	r3, r2, #16
 8002192:	0c1b      	lsrs	r3, r3, #16
 8002194:	001d      	movs	r5, r3
 8002196:	000e      	movs	r6, r1
 8002198:	4661      	mov	r1, ip
 800219a:	0400      	lsls	r0, r0, #16
 800219c:	0c14      	lsrs	r4, r2, #16
 800219e:	0c00      	lsrs	r0, r0, #16
 80021a0:	4345      	muls	r5, r0
 80021a2:	434b      	muls	r3, r1
 80021a4:	4360      	muls	r0, r4
 80021a6:	4361      	muls	r1, r4
 80021a8:	18c0      	adds	r0, r0, r3
 80021aa:	0c2c      	lsrs	r4, r5, #16
 80021ac:	1820      	adds	r0, r4, r0
 80021ae:	468c      	mov	ip, r1
 80021b0:	4283      	cmp	r3, r0
 80021b2:	d903      	bls.n	80021bc <__aeabi_lmul+0x3c>
 80021b4:	2380      	movs	r3, #128	; 0x80
 80021b6:	025b      	lsls	r3, r3, #9
 80021b8:	4698      	mov	r8, r3
 80021ba:	44c4      	add	ip, r8
 80021bc:	4649      	mov	r1, r9
 80021be:	4379      	muls	r1, r7
 80021c0:	4372      	muls	r2, r6
 80021c2:	0c03      	lsrs	r3, r0, #16
 80021c4:	4463      	add	r3, ip
 80021c6:	042d      	lsls	r5, r5, #16
 80021c8:	0c2d      	lsrs	r5, r5, #16
 80021ca:	18c9      	adds	r1, r1, r3
 80021cc:	0400      	lsls	r0, r0, #16
 80021ce:	1940      	adds	r0, r0, r5
 80021d0:	1889      	adds	r1, r1, r2
 80021d2:	bcc0      	pop	{r6, r7}
 80021d4:	46b9      	mov	r9, r7
 80021d6:	46b0      	mov	r8, r6
 80021d8:	bdf0      	pop	{r4, r5, r6, r7, pc}
 80021da:	46c0      	nop			; (mov r8, r8)

080021dc <__aeabi_d2uiz>:
 80021dc:	b570      	push	{r4, r5, r6, lr}
 80021de:	2200      	movs	r2, #0
 80021e0:	4b0c      	ldr	r3, [pc, #48]	; (8002214 <__aeabi_d2uiz+0x38>)
 80021e2:	0004      	movs	r4, r0
 80021e4:	000d      	movs	r5, r1
 80021e6:	f7fe f84f 	bl	8000288 <__aeabi_dcmpge>
 80021ea:	2800      	cmp	r0, #0
 80021ec:	d104      	bne.n	80021f8 <__aeabi_d2uiz+0x1c>
 80021ee:	0020      	movs	r0, r4
 80021f0:	0029      	movs	r1, r5
 80021f2:	f7ff ff0f 	bl	8002014 <__aeabi_d2iz>
 80021f6:	bd70      	pop	{r4, r5, r6, pc}
 80021f8:	4b06      	ldr	r3, [pc, #24]	; (8002214 <__aeabi_d2uiz+0x38>)
 80021fa:	2200      	movs	r2, #0
 80021fc:	0020      	movs	r0, r4
 80021fe:	0029      	movs	r1, r5
 8002200:	f7ff fb76 	bl	80018f0 <__aeabi_dsub>
 8002204:	f7ff ff06 	bl	8002014 <__aeabi_d2iz>
 8002208:	2380      	movs	r3, #128	; 0x80
 800220a:	061b      	lsls	r3, r3, #24
 800220c:	469c      	mov	ip, r3
 800220e:	4460      	add	r0, ip
 8002210:	e7f1      	b.n	80021f6 <__aeabi_d2uiz+0x1a>
 8002212:	46c0      	nop			; (mov r8, r8)
 8002214:	41e00000 	.word	0x41e00000

08002218 <__divdi3>:
 8002218:	b5f0      	push	{r4, r5, r6, r7, lr}
 800221a:	4657      	mov	r7, sl
 800221c:	464e      	mov	r6, r9
 800221e:	4645      	mov	r5, r8
 8002220:	46de      	mov	lr, fp
 8002222:	b5e0      	push	{r5, r6, r7, lr}
 8002224:	000f      	movs	r7, r1
 8002226:	0019      	movs	r1, r3
 8002228:	2300      	movs	r3, #0
 800222a:	0006      	movs	r6, r0
 800222c:	4698      	mov	r8, r3
 800222e:	0010      	movs	r0, r2
 8002230:	b083      	sub	sp, #12
 8002232:	2f00      	cmp	r7, #0
 8002234:	da07      	bge.n	8002246 <__divdi3+0x2e>
 8002236:	0033      	movs	r3, r6
 8002238:	003c      	movs	r4, r7
 800223a:	2700      	movs	r7, #0
 800223c:	425e      	negs	r6, r3
 800223e:	41a7      	sbcs	r7, r4
 8002240:	2301      	movs	r3, #1
 8002242:	425b      	negs	r3, r3
 8002244:	4698      	mov	r8, r3
 8002246:	2900      	cmp	r1, #0
 8002248:	da07      	bge.n	800225a <__divdi3+0x42>
 800224a:	4643      	mov	r3, r8
 800224c:	43db      	mvns	r3, r3
 800224e:	000c      	movs	r4, r1
 8002250:	4698      	mov	r8, r3
 8002252:	0003      	movs	r3, r0
 8002254:	2100      	movs	r1, #0
 8002256:	4258      	negs	r0, r3
 8002258:	41a1      	sbcs	r1, r4
 800225a:	0034      	movs	r4, r6
 800225c:	003d      	movs	r5, r7
 800225e:	4682      	mov	sl, r0
 8002260:	4689      	mov	r9, r1
 8002262:	42b9      	cmp	r1, r7
 8002264:	d86a      	bhi.n	800233c <__divdi3+0x124>
 8002266:	d067      	beq.n	8002338 <__divdi3+0x120>
 8002268:	4649      	mov	r1, r9
 800226a:	4650      	mov	r0, sl
 800226c:	f7ff ff7c 	bl	8002168 <__clzdi2>
 8002270:	4683      	mov	fp, r0
 8002272:	0039      	movs	r1, r7
 8002274:	0030      	movs	r0, r6
 8002276:	f7ff ff77 	bl	8002168 <__clzdi2>
 800227a:	465b      	mov	r3, fp
 800227c:	1a1b      	subs	r3, r3, r0
 800227e:	469c      	mov	ip, r3
 8002280:	3b20      	subs	r3, #32
 8002282:	469b      	mov	fp, r3
 8002284:	d46b      	bmi.n	800235e <__divdi3+0x146>
 8002286:	4658      	mov	r0, fp
 8002288:	4651      	mov	r1, sl
 800228a:	4081      	lsls	r1, r0
 800228c:	4660      	mov	r0, ip
 800228e:	000b      	movs	r3, r1
 8002290:	4651      	mov	r1, sl
 8002292:	4081      	lsls	r1, r0
 8002294:	000a      	movs	r2, r1
 8002296:	42bb      	cmp	r3, r7
 8002298:	d900      	bls.n	800229c <__divdi3+0x84>
 800229a:	e072      	b.n	8002382 <__divdi3+0x16a>
 800229c:	42bb      	cmp	r3, r7
 800229e:	d100      	bne.n	80022a2 <__divdi3+0x8a>
 80022a0:	e079      	b.n	8002396 <__divdi3+0x17e>
 80022a2:	0034      	movs	r4, r6
 80022a4:	003d      	movs	r5, r7
 80022a6:	4659      	mov	r1, fp
 80022a8:	1aa4      	subs	r4, r4, r2
 80022aa:	419d      	sbcs	r5, r3
 80022ac:	2900      	cmp	r1, #0
 80022ae:	da00      	bge.n	80022b2 <__divdi3+0x9a>
 80022b0:	e074      	b.n	800239c <__divdi3+0x184>
 80022b2:	2100      	movs	r1, #0
 80022b4:	2000      	movs	r0, #0
 80022b6:	2601      	movs	r6, #1
 80022b8:	9000      	str	r0, [sp, #0]
 80022ba:	9101      	str	r1, [sp, #4]
 80022bc:	4659      	mov	r1, fp
 80022be:	408e      	lsls	r6, r1
 80022c0:	9601      	str	r6, [sp, #4]
 80022c2:	4661      	mov	r1, ip
 80022c4:	2601      	movs	r6, #1
 80022c6:	408e      	lsls	r6, r1
 80022c8:	4661      	mov	r1, ip
 80022ca:	9600      	str	r6, [sp, #0]
 80022cc:	2900      	cmp	r1, #0
 80022ce:	d05f      	beq.n	8002390 <__divdi3+0x178>
 80022d0:	07d9      	lsls	r1, r3, #31
 80022d2:	0856      	lsrs	r6, r2, #1
 80022d4:	430e      	orrs	r6, r1
 80022d6:	085f      	lsrs	r7, r3, #1
 80022d8:	4661      	mov	r1, ip
 80022da:	2201      	movs	r2, #1
 80022dc:	2300      	movs	r3, #0
 80022de:	e00c      	b.n	80022fa <__divdi3+0xe2>
 80022e0:	42af      	cmp	r7, r5
 80022e2:	d101      	bne.n	80022e8 <__divdi3+0xd0>
 80022e4:	42a6      	cmp	r6, r4
 80022e6:	d80a      	bhi.n	80022fe <__divdi3+0xe6>
 80022e8:	1ba4      	subs	r4, r4, r6
 80022ea:	41bd      	sbcs	r5, r7
 80022ec:	1924      	adds	r4, r4, r4
 80022ee:	416d      	adcs	r5, r5
 80022f0:	3901      	subs	r1, #1
 80022f2:	18a4      	adds	r4, r4, r2
 80022f4:	415d      	adcs	r5, r3
 80022f6:	2900      	cmp	r1, #0
 80022f8:	d006      	beq.n	8002308 <__divdi3+0xf0>
 80022fa:	42af      	cmp	r7, r5
 80022fc:	d9f0      	bls.n	80022e0 <__divdi3+0xc8>
 80022fe:	3901      	subs	r1, #1
 8002300:	1924      	adds	r4, r4, r4
 8002302:	416d      	adcs	r5, r5
 8002304:	2900      	cmp	r1, #0
 8002306:	d1f8      	bne.n	80022fa <__divdi3+0xe2>
 8002308:	9800      	ldr	r0, [sp, #0]
 800230a:	9901      	ldr	r1, [sp, #4]
 800230c:	465b      	mov	r3, fp
 800230e:	1900      	adds	r0, r0, r4
 8002310:	4169      	adcs	r1, r5
 8002312:	2b00      	cmp	r3, #0
 8002314:	db4d      	blt.n	80023b2 <__divdi3+0x19a>
 8002316:	002e      	movs	r6, r5
 8002318:	002c      	movs	r4, r5
 800231a:	40de      	lsrs	r6, r3
 800231c:	4663      	mov	r3, ip
 800231e:	40dc      	lsrs	r4, r3
 8002320:	465b      	mov	r3, fp
 8002322:	2b00      	cmp	r3, #0
 8002324:	db55      	blt.n	80023d2 <__divdi3+0x1ba>
 8002326:	0034      	movs	r4, r6
 8002328:	409c      	lsls	r4, r3
 800232a:	0023      	movs	r3, r4
 800232c:	4664      	mov	r4, ip
 800232e:	40a6      	lsls	r6, r4
 8002330:	0032      	movs	r2, r6
 8002332:	1a80      	subs	r0, r0, r2
 8002334:	4199      	sbcs	r1, r3
 8002336:	e003      	b.n	8002340 <__divdi3+0x128>
 8002338:	42b0      	cmp	r0, r6
 800233a:	d995      	bls.n	8002268 <__divdi3+0x50>
 800233c:	2000      	movs	r0, #0
 800233e:	2100      	movs	r1, #0
 8002340:	4643      	mov	r3, r8
 8002342:	2b00      	cmp	r3, #0
 8002344:	d004      	beq.n	8002350 <__divdi3+0x138>
 8002346:	0003      	movs	r3, r0
 8002348:	000c      	movs	r4, r1
 800234a:	2100      	movs	r1, #0
 800234c:	4258      	negs	r0, r3
 800234e:	41a1      	sbcs	r1, r4
 8002350:	b003      	add	sp, #12
 8002352:	bcf0      	pop	{r4, r5, r6, r7}
 8002354:	46bb      	mov	fp, r7
 8002356:	46b2      	mov	sl, r6
 8002358:	46a9      	mov	r9, r5
 800235a:	46a0      	mov	r8, r4
 800235c:	bdf0      	pop	{r4, r5, r6, r7, pc}
 800235e:	4662      	mov	r2, ip
 8002360:	4648      	mov	r0, r9
 8002362:	2320      	movs	r3, #32
 8002364:	4651      	mov	r1, sl
 8002366:	4090      	lsls	r0, r2
 8002368:	1a9b      	subs	r3, r3, r2
 800236a:	40d9      	lsrs	r1, r3
 800236c:	0003      	movs	r3, r0
 800236e:	9100      	str	r1, [sp, #0]
 8002370:	9900      	ldr	r1, [sp, #0]
 8002372:	4660      	mov	r0, ip
 8002374:	430b      	orrs	r3, r1
 8002376:	4651      	mov	r1, sl
 8002378:	4081      	lsls	r1, r0
 800237a:	000a      	movs	r2, r1
 800237c:	42bb      	cmp	r3, r7
 800237e:	d800      	bhi.n	8002382 <__divdi3+0x16a>
 8002380:	e78c      	b.n	800229c <__divdi3+0x84>
 8002382:	2100      	movs	r1, #0
 8002384:	2000      	movs	r0, #0
 8002386:	9000      	str	r0, [sp, #0]
 8002388:	9101      	str	r1, [sp, #4]
 800238a:	4661      	mov	r1, ip
 800238c:	2900      	cmp	r1, #0
 800238e:	d19f      	bne.n	80022d0 <__divdi3+0xb8>
 8002390:	9800      	ldr	r0, [sp, #0]
 8002392:	9901      	ldr	r1, [sp, #4]
 8002394:	e7d4      	b.n	8002340 <__divdi3+0x128>
 8002396:	42b1      	cmp	r1, r6
 8002398:	d8f3      	bhi.n	8002382 <__divdi3+0x16a>
 800239a:	e782      	b.n	80022a2 <__divdi3+0x8a>
 800239c:	4661      	mov	r1, ip
 800239e:	2620      	movs	r6, #32
 80023a0:	2701      	movs	r7, #1
 80023a2:	1a76      	subs	r6, r6, r1
 80023a4:	2000      	movs	r0, #0
 80023a6:	2100      	movs	r1, #0
 80023a8:	40f7      	lsrs	r7, r6
 80023aa:	9000      	str	r0, [sp, #0]
 80023ac:	9101      	str	r1, [sp, #4]
 80023ae:	9701      	str	r7, [sp, #4]
 80023b0:	e787      	b.n	80022c2 <__divdi3+0xaa>
 80023b2:	4662      	mov	r2, ip
 80023b4:	2320      	movs	r3, #32
 80023b6:	1a9b      	subs	r3, r3, r2
 80023b8:	002a      	movs	r2, r5
 80023ba:	409a      	lsls	r2, r3
 80023bc:	0026      	movs	r6, r4
 80023be:	0013      	movs	r3, r2
 80023c0:	4662      	mov	r2, ip
 80023c2:	40d6      	lsrs	r6, r2
 80023c4:	002c      	movs	r4, r5
 80023c6:	431e      	orrs	r6, r3
 80023c8:	4663      	mov	r3, ip
 80023ca:	40dc      	lsrs	r4, r3
 80023cc:	465b      	mov	r3, fp
 80023ce:	2b00      	cmp	r3, #0
 80023d0:	daa9      	bge.n	8002326 <__divdi3+0x10e>
 80023d2:	4662      	mov	r2, ip
 80023d4:	2320      	movs	r3, #32
 80023d6:	0035      	movs	r5, r6
 80023d8:	4094      	lsls	r4, r2
 80023da:	1a9b      	subs	r3, r3, r2
 80023dc:	40dd      	lsrs	r5, r3
 80023de:	0023      	movs	r3, r4
 80023e0:	432b      	orrs	r3, r5
 80023e2:	e7a3      	b.n	800232c <__divdi3+0x114>

080023e4 <StartDefaultTask>:
    while(1);
}

#if 1
static void StartDefaultTask(void *argument)
{
 80023e4:	b510      	push	{r4, lr}
	while(1)
	{
		bsp_led1_toggle();
 80023e6:	f000 f8e5 	bl	80025b4 <bsp_led1_toggle>
		vTaskDelay(500);
 80023ea:	20fa      	movs	r0, #250	; 0xfa
 80023ec:	0040      	lsls	r0, r0, #1
 80023ee:	f004 fff3 	bl	80073d8 <vTaskDelay>
	while(1)
 80023f2:	e7f8      	b.n	80023e6 <StartDefaultTask+0x2>

080023f4 <vApplicationStackOverflowHook>:
    while(1);
 80023f4:	e7fe      	b.n	80023f4 <vApplicationStackOverflowHook>
 80023f6:	46c0      	nop			; (mov r8, r8)

080023f8 <MX_FREERTOS_Init>:
	}
}
#endif

void MX_FREERTOS_Init(void) {
	xTaskCreate(
 80023f8:	2300      	movs	r3, #0
void MX_FREERTOS_Init(void) {
 80023fa:	b500      	push	{lr}
 80023fc:	b083      	sub	sp, #12
	xTaskCreate(
 80023fe:	9301      	str	r3, [sp, #4]
 8002400:	3309      	adds	r3, #9
 8002402:	9300      	str	r3, [sp, #0]
 8002404:	22c8      	movs	r2, #200	; 0xc8
 8002406:	2300      	movs	r3, #0
 8002408:	4902      	ldr	r1, [pc, #8]	; (8002414 <MX_FREERTOS_Init+0x1c>)
 800240a:	4803      	ldr	r0, [pc, #12]	; (8002418 <MX_FREERTOS_Init+0x20>)
 800240c:	f004 ffae 	bl	800736c <xTaskCreate>
		  200,
		  NULL,
		  configMAX_PRIORITIES - 1,
		  NULL);

}
 8002410:	b003      	add	sp, #12
 8002412:	bd00      	pop	{pc}
 8002414:	08007f68 	.word	0x08007f68
 8002418:	080023e5 	.word	0x080023e5

0800241c <bsp_adc_init>:
#include "bsp_adc.h"

ADC_HandleTypeDef hadc;

void bsp_adc_init(void)
{
 800241c:	b510      	push	{r4, lr}
 800241e:	b084      	sub	sp, #16
  ADC_ChannelConfTypeDef sConfig = {0};
 8002420:	220c      	movs	r2, #12
 8002422:	2100      	movs	r1, #0
 8002424:	a801      	add	r0, sp, #4
 8002426:	f005 fc7b 	bl	8007d20 <memset>
  hadc.Instance = ADC1;
  hadc.Init.ClockPrescaler = ADC_CLOCK_ASYNC_DIV1;
  hadc.Init.Resolution = ADC_RESOLUTION_12B;
  hadc.Init.DataAlign = ADC_DATAALIGN_RIGHT;
  hadc.Init.ScanConvMode = ADC_SCAN_DIRECTION_FORWARD;
  hadc.Init.EOCSelection = ADC_EOC_SINGLE_CONV;
 800242a:	2104      	movs	r1, #4
  hadc.Instance = ADC1;
 800242c:	4c1d      	ldr	r4, [pc, #116]	; (80024a4 <bsp_adc_init+0x88>)
 800242e:	4b1e      	ldr	r3, [pc, #120]	; (80024a8 <bsp_adc_init+0x8c>)
  hadc.Init.EOCSelection = ADC_EOC_SINGLE_CONV;
 8002430:	6161      	str	r1, [r4, #20]
  hadc.Init.LowPowerAutoWait = DISABLE;
 8002432:	2180      	movs	r1, #128	; 0x80
 8002434:	0449      	lsls	r1, r1, #17
 8002436:	61a1      	str	r1, [r4, #24]
  hadc.Init.LowPowerAutoPowerOff = DISABLE;
  hadc.Init.ContinuousConvMode = DISABLE;
  hadc.Init.DiscontinuousConvMode = ENABLE;
  hadc.Init.ExternalTrigConv = ADC_SOFTWARE_START;
 8002438:	21c2      	movs	r1, #194	; 0xc2
  hadc.Init.ScanConvMode = ADC_SCAN_DIRECTION_FORWARD;
 800243a:	2201      	movs	r2, #1
  hadc.Instance = ADC1;
 800243c:	6023      	str	r3, [r4, #0]
  hadc.Init.ClockPrescaler = ADC_CLOCK_ASYNC_DIV1;
 800243e:	2300      	movs	r3, #0
  hadc.Init.ExternalTrigConv = ADC_SOFTWARE_START;
 8002440:	31ff      	adds	r1, #255	; 0xff
 8002442:	61e1      	str	r1, [r4, #28]
  hadc.Init.ExternalTrigConvEdge = ADC_EXTERNALTRIGCONVEDGE_NONE;
  hadc.Init.DMAContinuousRequests = DISABLE;
 8002444:	399e      	subs	r1, #158	; 0x9e
 8002446:	39ff      	subs	r1, #255	; 0xff
  hadc.Init.Overrun = ADC_OVR_DATA_PRESERVED;
  if (HAL_ADC_Init(&hadc) != HAL_OK)
 8002448:	0020      	movs	r0, r4
  hadc.Init.ClockPrescaler = ADC_CLOCK_ASYNC_DIV1;
 800244a:	6063      	str	r3, [r4, #4]
  hadc.Init.Resolution = ADC_RESOLUTION_12B;
 800244c:	60a3      	str	r3, [r4, #8]
  hadc.Init.DataAlign = ADC_DATAALIGN_RIGHT;
 800244e:	60e3      	str	r3, [r4, #12]
  hadc.Init.ScanConvMode = ADC_SCAN_DIRECTION_FORWARD;
 8002450:	6122      	str	r2, [r4, #16]
  hadc.Init.ExternalTrigConvEdge = ADC_EXTERNALTRIGCONVEDGE_NONE;
 8002452:	6223      	str	r3, [r4, #32]
  hadc.Init.DMAContinuousRequests = DISABLE;
 8002454:	5463      	strb	r3, [r4, r1]
  hadc.Init.Overrun = ADC_OVR_DATA_PRESERVED;
 8002456:	62a2      	str	r2, [r4, #40]	; 0x28
  if (HAL_ADC_Init(&hadc) != HAL_OK)
 8002458:	f002 fc90 	bl	8004d7c <HAL_ADC_Init>
 800245c:	2800      	cmp	r0, #0
 800245e:	d117      	bne.n	8002490 <bsp_adc_init+0x74>
    Error_Handler();
  }

  /** Configure for the selected ADC regular channel to be converted.
  */
  sConfig.Channel = ADC_CHANNEL_1;
 8002460:	2301      	movs	r3, #1
 8002462:	9301      	str	r3, [sp, #4]
  sConfig.Rank = ADC_RANK_CHANNEL_NUMBER;
 8002464:	2380      	movs	r3, #128	; 0x80
 8002466:	015b      	lsls	r3, r3, #5
 8002468:	9302      	str	r3, [sp, #8]
  sConfig.SamplingTime = ADC_SAMPLETIME_1CYCLE_5;
 800246a:	2380      	movs	r3, #128	; 0x80
  if (HAL_ADC_ConfigChannel(&hadc, &sConfig) != HAL_OK)
 800246c:	0020      	movs	r0, r4
  sConfig.SamplingTime = ADC_SAMPLETIME_1CYCLE_5;
 800246e:	055b      	lsls	r3, r3, #21
  if (HAL_ADC_ConfigChannel(&hadc, &sConfig) != HAL_OK)
 8002470:	a901      	add	r1, sp, #4
  sConfig.SamplingTime = ADC_SAMPLETIME_1CYCLE_5;
 8002472:	9303      	str	r3, [sp, #12]
  if (HAL_ADC_ConfigChannel(&hadc, &sConfig) != HAL_OK)
 8002474:	f002 fd9c 	bl	8004fb0 <HAL_ADC_ConfigChannel>
 8002478:	2800      	cmp	r0, #0
 800247a:	d10f      	bne.n	800249c <bsp_adc_init+0x80>
    Error_Handler();
  }

  /** Configure for the selected ADC regular channel to be converted.
  */
  sConfig.Channel = ADC_CHANNEL_2;
 800247c:	2302      	movs	r3, #2
  if (HAL_ADC_ConfigChannel(&hadc, &sConfig) != HAL_OK)
 800247e:	0020      	movs	r0, r4
 8002480:	a901      	add	r1, sp, #4
  sConfig.Channel = ADC_CHANNEL_2;
 8002482:	9301      	str	r3, [sp, #4]
  if (HAL_ADC_ConfigChannel(&hadc, &sConfig) != HAL_OK)
 8002484:	f002 fd94 	bl	8004fb0 <HAL_ADC_ConfigChannel>
 8002488:	2800      	cmp	r0, #0
 800248a:	d104      	bne.n	8002496 <bsp_adc_init+0x7a>
    Error_Handler();
  }
  /* USER CODE BEGIN ADC_Init 2 */

  /* USER CODE END ADC_Init 2 */
}
 800248c:	b004      	add	sp, #16
 800248e:	bd10      	pop	{r4, pc}
    Error_Handler();
 8002490:	f000 fb24 	bl	8002adc <Error_Handler>
 8002494:	e7e4      	b.n	8002460 <bsp_adc_init+0x44>
    Error_Handler();
 8002496:	f000 fb21 	bl	8002adc <Error_Handler>
}
 800249a:	e7f7      	b.n	800248c <bsp_adc_init+0x70>
    Error_Handler();
 800249c:	f000 fb1e 	bl	8002adc <Error_Handler>
 80024a0:	e7ec      	b.n	800247c <bsp_adc_init+0x60>
 80024a2:	46c0      	nop			; (mov r8, r8)
 80024a4:	20000590 	.word	0x20000590
 80024a8:	40012400 	.word	0x40012400

080024ac <HAL_ADC_MspInit>:

void HAL_ADC_MspInit(ADC_HandleTypeDef* adcHandle)
{
 80024ac:	b510      	push	{r4, lr}
 80024ae:	0004      	movs	r4, r0
 80024b0:	b088      	sub	sp, #32

  GPIO_InitTypeDef GPIO_InitStruct = {0};
 80024b2:	2214      	movs	r2, #20
 80024b4:	2100      	movs	r1, #0
 80024b6:	a803      	add	r0, sp, #12
 80024b8:	f005 fc32 	bl	8007d20 <memset>
  if(adcHandle->Instance==ADC1)
 80024bc:	4b11      	ldr	r3, [pc, #68]	; (8002504 <HAL_ADC_MspInit+0x58>)
 80024be:	6822      	ldr	r2, [r4, #0]
 80024c0:	429a      	cmp	r2, r3
 80024c2:	d001      	beq.n	80024c8 <HAL_ADC_MspInit+0x1c>

  /* USER CODE BEGIN ADC1_MspInit 1 */

  /* USER CODE END ADC1_MspInit 1 */
  }
}
 80024c4:	b008      	add	sp, #32
 80024c6:	bd10      	pop	{r4, pc}
    __HAL_RCC_ADC1_CLK_ENABLE();
 80024c8:	2080      	movs	r0, #128	; 0x80
 80024ca:	4b0f      	ldr	r3, [pc, #60]	; (8002508 <HAL_ADC_MspInit+0x5c>)
 80024cc:	0080      	lsls	r0, r0, #2
 80024ce:	6999      	ldr	r1, [r3, #24]
 80024d0:	4301      	orrs	r1, r0
 80024d2:	6199      	str	r1, [r3, #24]
    __HAL_RCC_GPIOA_CLK_ENABLE();
 80024d4:	2180      	movs	r1, #128	; 0x80
    __HAL_RCC_ADC1_CLK_ENABLE();
 80024d6:	699a      	ldr	r2, [r3, #24]
    __HAL_RCC_GPIOA_CLK_ENABLE();
 80024d8:	0289      	lsls	r1, r1, #10
    __HAL_RCC_ADC1_CLK_ENABLE();
 80024da:	4002      	ands	r2, r0
 80024dc:	9201      	str	r2, [sp, #4]
 80024de:	9a01      	ldr	r2, [sp, #4]
    __HAL_RCC_GPIOA_CLK_ENABLE();
 80024e0:	695a      	ldr	r2, [r3, #20]
    HAL_GPIO_Init(GPIOA, &GPIO_InitStruct);
 80024e2:	2090      	movs	r0, #144	; 0x90
    __HAL_RCC_GPIOA_CLK_ENABLE();
 80024e4:	430a      	orrs	r2, r1
 80024e6:	615a      	str	r2, [r3, #20]
 80024e8:	695b      	ldr	r3, [r3, #20]
    HAL_GPIO_Init(GPIOA, &GPIO_InitStruct);
 80024ea:	05c0      	lsls	r0, r0, #23
    __HAL_RCC_GPIOA_CLK_ENABLE();
 80024ec:	400b      	ands	r3, r1
 80024ee:	9302      	str	r3, [sp, #8]
 80024f0:	9b02      	ldr	r3, [sp, #8]
    GPIO_InitStruct.Pin = GPIO_PIN_1|GPIO_PIN_2;
 80024f2:	2306      	movs	r3, #6
    HAL_GPIO_Init(GPIOA, &GPIO_InitStruct);
 80024f4:	a903      	add	r1, sp, #12
    GPIO_InitStruct.Pin = GPIO_PIN_1|GPIO_PIN_2;
 80024f6:	9303      	str	r3, [sp, #12]
    GPIO_InitStruct.Mode = GPIO_MODE_ANALOG;
 80024f8:	3b03      	subs	r3, #3
 80024fa:	9304      	str	r3, [sp, #16]
    HAL_GPIO_Init(GPIOA, &GPIO_InitStruct);
 80024fc:	f002 feca 	bl	8005294 <HAL_GPIO_Init>
}
 8002500:	e7e0      	b.n	80024c4 <HAL_ADC_MspInit+0x18>
 8002502:	46c0      	nop			; (mov r8, r8)
 8002504:	40012400 	.word	0x40012400
 8002508:	40021000 	.word	0x40021000

0800250c <bsp_beep_init>:
/*
 * beep1:PB15 BEEP2:PB14
 * 
*/
void bsp_beep_init()
{
 800250c:	b530      	push	{r4, r5, lr}
 800250e:	b087      	sub	sp, #28
	GPIO_InitTypeDef GPIO_InitStruct = {0};
 8002510:	2214      	movs	r2, #20
 8002512:	2100      	movs	r1, #0
 8002514:	a801      	add	r0, sp, #4
 8002516:	f005 fc03 	bl	8007d20 <memset>
	/* GPIO Ports Clock Enable */
	__HAL_RCC_GPIOB_CLK_ENABLE();
 800251a:	2080      	movs	r0, #128	; 0x80
	/*Configure GPIO pin Output Level */
	HAL_GPIO_WritePin(GPIOB, GPIO_PIN_14|GPIO_PIN_15, GPIO_PIN_RESET);
 800251c:	25c0      	movs	r5, #192	; 0xc0
	__HAL_RCC_GPIOB_CLK_ENABLE();
 800251e:	4a0e      	ldr	r2, [pc, #56]	; (8002558 <bsp_beep_init+0x4c>)
 8002520:	02c0      	lsls	r0, r0, #11
 8002522:	6951      	ldr	r1, [r2, #20]
	HAL_GPIO_WritePin(GPIOB, GPIO_PIN_14|GPIO_PIN_15, GPIO_PIN_RESET);
 8002524:	4c0d      	ldr	r4, [pc, #52]	; (800255c <bsp_beep_init+0x50>)
	__HAL_RCC_GPIOB_CLK_ENABLE();
 8002526:	4301      	orrs	r1, r0
 8002528:	6151      	str	r1, [r2, #20]
 800252a:	6953      	ldr	r3, [r2, #20]
	HAL_GPIO_WritePin(GPIOB, GPIO_PIN_14|GPIO_PIN_15, GPIO_PIN_RESET);
 800252c:	022d      	lsls	r5, r5, #8
	__HAL_RCC_GPIOB_CLK_ENABLE();
 800252e:	4003      	ands	r3, r0
	HAL_GPIO_WritePin(GPIOB, GPIO_PIN_14|GPIO_PIN_15, GPIO_PIN_RESET);
 8002530:	2200      	movs	r2, #0
 8002532:	0029      	movs	r1, r5
 8002534:	0020      	movs	r0, r4
	__HAL_RCC_GPIOB_CLK_ENABLE();
 8002536:	9300      	str	r3, [sp, #0]
 8002538:	9b00      	ldr	r3, [sp, #0]
	HAL_GPIO_WritePin(GPIOB, GPIO_PIN_14|GPIO_PIN_15, GPIO_PIN_RESET);
 800253a:	f003 f851 	bl	80055e0 <HAL_GPIO_WritePin>

	/*Configure GPIO pins : PB11 PB12 PB13 */
	GPIO_InitStruct.Pin = GPIO_PIN_14|GPIO_PIN_15;
	GPIO_InitStruct.Mode = GPIO_MODE_OUTPUT_PP;
 800253e:	2301      	movs	r3, #1
 8002540:	9302      	str	r3, [sp, #8]
	GPIO_InitStruct.Pull = GPIO_NOPULL;
 8002542:	2300      	movs	r3, #0
	GPIO_InitStruct.Speed = GPIO_SPEED_FREQ_LOW;
	HAL_GPIO_Init(GPIOB, &GPIO_InitStruct);
 8002544:	0020      	movs	r0, r4
 8002546:	a901      	add	r1, sp, #4
	GPIO_InitStruct.Pin = GPIO_PIN_14|GPIO_PIN_15;
 8002548:	9501      	str	r5, [sp, #4]
	GPIO_InitStruct.Pull = GPIO_NOPULL;
 800254a:	9303      	str	r3, [sp, #12]
	GPIO_InitStruct.Speed = GPIO_SPEED_FREQ_LOW;
 800254c:	9304      	str	r3, [sp, #16]
	HAL_GPIO_Init(GPIOB, &GPIO_InitStruct);
 800254e:	f002 fea1 	bl	8005294 <HAL_GPIO_Init>
}
 8002552:	b007      	add	sp, #28
 8002554:	bd30      	pop	{r4, r5, pc}
 8002556:	46c0      	nop			; (mov r8, r8)
 8002558:	40021000 	.word	0x40021000
 800255c:	48000400 	.word	0x48000400

08002560 <bsp_led_init>:

/*
 * LED1:PB11 LED2:PB12 PED3:PB13
*/
void bsp_led_init()
{
 8002560:	b530      	push	{r4, r5, lr}
 8002562:	b087      	sub	sp, #28
	GPIO_InitTypeDef GPIO_InitStruct = {0};
 8002564:	2214      	movs	r2, #20
 8002566:	2100      	movs	r1, #0
 8002568:	a801      	add	r0, sp, #4
 800256a:	f005 fbd9 	bl	8007d20 <memset>
	/* GPIO Ports Clock Enable */
	__HAL_RCC_GPIOB_CLK_ENABLE();
 800256e:	2080      	movs	r0, #128	; 0x80
	/*Configure GPIO pin Output Level */
	HAL_GPIO_WritePin(GPIOB, GPIO_PIN_11|GPIO_PIN_12|GPIO_PIN_13, GPIO_PIN_RESET);
 8002570:	25e0      	movs	r5, #224	; 0xe0
	__HAL_RCC_GPIOB_CLK_ENABLE();
 8002572:	4a0e      	ldr	r2, [pc, #56]	; (80025ac <bsp_led_init+0x4c>)
 8002574:	02c0      	lsls	r0, r0, #11
 8002576:	6951      	ldr	r1, [r2, #20]
	HAL_GPIO_WritePin(GPIOB, GPIO_PIN_11|GPIO_PIN_12|GPIO_PIN_13, GPIO_PIN_RESET);
 8002578:	4c0d      	ldr	r4, [pc, #52]	; (80025b0 <bsp_led_init+0x50>)
	__HAL_RCC_GPIOB_CLK_ENABLE();
 800257a:	4301      	orrs	r1, r0
 800257c:	6151      	str	r1, [r2, #20]
 800257e:	6953      	ldr	r3, [r2, #20]
	HAL_GPIO_WritePin(GPIOB, GPIO_PIN_11|GPIO_PIN_12|GPIO_PIN_13, GPIO_PIN_RESET);
 8002580:	01ad      	lsls	r5, r5, #6
	__HAL_RCC_GPIOB_CLK_ENABLE();
 8002582:	4003      	ands	r3, r0
	HAL_GPIO_WritePin(GPIOB, GPIO_PIN_11|GPIO_PIN_12|GPIO_PIN_13, GPIO_PIN_RESET);
 8002584:	2200      	movs	r2, #0
 8002586:	0029      	movs	r1, r5
 8002588:	0020      	movs	r0, r4
	__HAL_RCC_GPIOB_CLK_ENABLE();
 800258a:	9300      	str	r3, [sp, #0]
 800258c:	9b00      	ldr	r3, [sp, #0]
	HAL_GPIO_WritePin(GPIOB, GPIO_PIN_11|GPIO_PIN_12|GPIO_PIN_13, GPIO_PIN_RESET);
 800258e:	f003 f827 	bl	80055e0 <HAL_GPIO_WritePin>

	/*Configure GPIO pins : PB11 PB12 PB13 */
	GPIO_InitStruct.Pin = GPIO_PIN_11|GPIO_PIN_12|GPIO_PIN_13;
	GPIO_InitStruct.Mode = GPIO_MODE_OUTPUT_PP;
 8002592:	2301      	movs	r3, #1
 8002594:	9302      	str	r3, [sp, #8]
	GPIO_InitStruct.Pull = GPIO_NOPULL;
 8002596:	2300      	movs	r3, #0
	GPIO_InitStruct.Speed = GPIO_SPEED_FREQ_LOW;
	HAL_GPIO_Init(GPIOB, &GPIO_InitStruct);
 8002598:	0020      	movs	r0, r4
 800259a:	a901      	add	r1, sp, #4
	GPIO_InitStruct.Pin = GPIO_PIN_11|GPIO_PIN_12|GPIO_PIN_13;
 800259c:	9501      	str	r5, [sp, #4]
	GPIO_InitStruct.Pull = GPIO_NOPULL;
 800259e:	9303      	str	r3, [sp, #12]
	GPIO_InitStruct.Speed = GPIO_SPEED_FREQ_LOW;
 80025a0:	9304      	str	r3, [sp, #16]
	HAL_GPIO_Init(GPIOB, &GPIO_InitStruct);
 80025a2:	f002 fe77 	bl	8005294 <HAL_GPIO_Init>

}
 80025a6:	b007      	add	sp, #28
 80025a8:	bd30      	pop	{r4, r5, pc}
 80025aa:	46c0      	nop			; (mov r8, r8)
 80025ac:	40021000 	.word	0x40021000
 80025b0:	48000400 	.word	0x48000400

080025b4 <bsp_led1_toggle>:
{
	HAL_GPIO_WritePin(GPIOB, GPIO_PIN_11, GPIO_PIN_SET);
}
void bsp_led1_toggle()
{
	HAL_GPIO_TogglePin(GPIOB, GPIO_PIN_11);
 80025b4:	2180      	movs	r1, #128	; 0x80
{
 80025b6:	b510      	push	{r4, lr}
	HAL_GPIO_TogglePin(GPIOB, GPIO_PIN_11);
 80025b8:	4802      	ldr	r0, [pc, #8]	; (80025c4 <bsp_led1_toggle+0x10>)
 80025ba:	0109      	lsls	r1, r1, #4
 80025bc:	f003 f816 	bl	80055ec <HAL_GPIO_TogglePin>
}
 80025c0:	bd10      	pop	{r4, pc}
 80025c2:	46c0      	nop			; (mov r8, r8)
 80025c4:	48000400 	.word	0x48000400

080025c8 <bsp_led2_toggle>:
{
	HAL_GPIO_WritePin(GPIOB, GPIO_PIN_12, GPIO_PIN_SET);
}
void bsp_led2_toggle()
{
	HAL_GPIO_TogglePin(GPIOB, GPIO_PIN_12);
 80025c8:	2180      	movs	r1, #128	; 0x80
{
 80025ca:	b510      	push	{r4, lr}
	HAL_GPIO_TogglePin(GPIOB, GPIO_PIN_12);
 80025cc:	4802      	ldr	r0, [pc, #8]	; (80025d8 <bsp_led2_toggle+0x10>)
 80025ce:	0149      	lsls	r1, r1, #5
 80025d0:	f003 f80c 	bl	80055ec <HAL_GPIO_TogglePin>
}
 80025d4:	bd10      	pop	{r4, pc}
 80025d6:	46c0      	nop			; (mov r8, r8)
 80025d8:	48000400 	.word	0x48000400

080025dc <bsp_led3_toggle>:
{
	HAL_GPIO_WritePin(GPIOB, GPIO_PIN_13, GPIO_PIN_SET);
}
void bsp_led3_toggle()
{
	HAL_GPIO_TogglePin(GPIOB, GPIO_PIN_13);
 80025dc:	2180      	movs	r1, #128	; 0x80
{
 80025de:	b510      	push	{r4, lr}
	HAL_GPIO_TogglePin(GPIOB, GPIO_PIN_13);
 80025e0:	4802      	ldr	r0, [pc, #8]	; (80025ec <bsp_led3_toggle+0x10>)
 80025e2:	0189      	lsls	r1, r1, #6
 80025e4:	f003 f802 	bl	80055ec <HAL_GPIO_TogglePin>
}
 80025e8:	bd10      	pop	{r4, pc}
 80025ea:	46c0      	nop			; (mov r8, r8)
 80025ec:	48000400 	.word	0x48000400

080025f0 <bsp_uart_init>:

	/*  */
	HAL_GPIO_WritePin(GPIOA, GPIO_PIN_8, GPIO_PIN_SET);
}
void bsp_uart_init(void)
{
 80025f0:	b530      	push	{r4, r5, lr}
 80025f2:	b087      	sub	sp, #28
	GPIO_InitTypeDef GPIO_InitStruct = {0};
 80025f4:	2214      	movs	r2, #20
 80025f6:	2100      	movs	r1, #0
 80025f8:	a801      	add	r0, sp, #4
 80025fa:	f005 fb91 	bl	8007d20 <memset>
	__HAL_RCC_GPIOA_CLK_ENABLE();
 80025fe:	2080      	movs	r0, #128	; 0x80
 8002600:	4a1c      	ldr	r2, [pc, #112]	; (8002674 <bsp_uart_init+0x84>)
 8002602:	0280      	lsls	r0, r0, #10
 8002604:	6951      	ldr	r1, [r2, #20]
    HAL_GPIO_WritePin(GPIOA, GPIO_PIN_8, GPIO_PIN_RESET);
 8002606:	2580      	movs	r5, #128	; 0x80
	__HAL_RCC_GPIOA_CLK_ENABLE();
 8002608:	4301      	orrs	r1, r0
 800260a:	6151      	str	r1, [r2, #20]
 800260c:	6953      	ldr	r3, [r2, #20]
    HAL_GPIO_WritePin(GPIOA, GPIO_PIN_8, GPIO_PIN_RESET);
 800260e:	006d      	lsls	r5, r5, #1
	__HAL_RCC_GPIOA_CLK_ENABLE();
 8002610:	4003      	ands	r3, r0
    HAL_GPIO_WritePin(GPIOA, GPIO_PIN_8, GPIO_PIN_RESET);
 8002612:	2090      	movs	r0, #144	; 0x90
 8002614:	2200      	movs	r2, #0
 8002616:	0029      	movs	r1, r5
	__HAL_RCC_GPIOA_CLK_ENABLE();
 8002618:	9300      	str	r3, [sp, #0]
    HAL_GPIO_WritePin(GPIOA, GPIO_PIN_8, GPIO_PIN_RESET);
 800261a:	05c0      	lsls	r0, r0, #23
	__HAL_RCC_GPIOA_CLK_ENABLE();
 800261c:	9b00      	ldr	r3, [sp, #0]
    HAL_GPIO_WritePin(GPIOA, GPIO_PIN_8, GPIO_PIN_RESET);
 800261e:	f002 ffdf 	bl	80055e0 <HAL_GPIO_WritePin>
	HAL_GPIO_Init(GPIOA, &GPIO_InitStruct);
 8002622:	2090      	movs	r0, #144	; 0x90
	GPIO_InitStruct.Pull = GPIO_NOPULL;
 8002624:	2400      	movs	r4, #0
	GPIO_InitStruct.Mode = GPIO_MODE_OUTPUT_PP;
 8002626:	2301      	movs	r3, #1
	HAL_GPIO_Init(GPIOA, &GPIO_InitStruct);
 8002628:	a901      	add	r1, sp, #4
 800262a:	05c0      	lsls	r0, r0, #23
	GPIO_InitStruct.Mode = GPIO_MODE_OUTPUT_PP;
 800262c:	9302      	str	r3, [sp, #8]
	GPIO_InitStruct.Pin = GPIO_PIN_8;
 800262e:	9501      	str	r5, [sp, #4]
	GPIO_InitStruct.Pull = GPIO_NOPULL;
 8002630:	9403      	str	r4, [sp, #12]
	GPIO_InitStruct.Speed = GPIO_SPEED_FREQ_LOW;
 8002632:	9404      	str	r4, [sp, #16]
	HAL_GPIO_Init(GPIOA, &GPIO_InitStruct);
 8002634:	f002 fe2e 	bl	8005294 <HAL_GPIO_Init>
	HAL_GPIO_WritePin(GPIOA, GPIO_PIN_8, GPIO_PIN_SET);
 8002638:	2090      	movs	r0, #144	; 0x90
 800263a:	2201      	movs	r2, #1
 800263c:	05c0      	lsls	r0, r0, #23
 800263e:	0029      	movs	r1, r5
 8002640:	f002 ffce 	bl	80055e0 <HAL_GPIO_WritePin>
  /* USER CODE END USART1_Init 0 */

  /* USER CODE BEGIN USART1_Init 1 */

  /* USER CODE END USART1_Init 1 */
  huart1.Instance = USART1;
 8002644:	480c      	ldr	r0, [pc, #48]	; (8002678 <bsp_uart_init+0x88>)
 8002646:	4b0d      	ldr	r3, [pc, #52]	; (800267c <bsp_uart_init+0x8c>)
  huart1.Init.BaudRate = 115200;
  huart1.Init.WordLength = UART_WORDLENGTH_8B;
 8002648:	6084      	str	r4, [r0, #8]
  huart1.Instance = USART1;
 800264a:	6003      	str	r3, [r0, #0]
  huart1.Init.BaudRate = 115200;
 800264c:	23e1      	movs	r3, #225	; 0xe1
 800264e:	025b      	lsls	r3, r3, #9
 8002650:	6043      	str	r3, [r0, #4]
  huart1.Init.StopBits = UART_STOPBITS_1;
  huart1.Init.Parity = UART_PARITY_NONE;
  huart1.Init.Mode = UART_MODE_TX_RX;
 8002652:	230c      	movs	r3, #12
  huart1.Init.StopBits = UART_STOPBITS_1;
 8002654:	60c4      	str	r4, [r0, #12]
  huart1.Init.Parity = UART_PARITY_NONE;
 8002656:	6104      	str	r4, [r0, #16]
  huart1.Init.Mode = UART_MODE_TX_RX;
 8002658:	6143      	str	r3, [r0, #20]
  huart1.Init.HwFlowCtl = UART_HWCONTROL_NONE;
 800265a:	6184      	str	r4, [r0, #24]
  huart1.Init.OverSampling = UART_OVERSAMPLING_16;
 800265c:	61c4      	str	r4, [r0, #28]
  huart1.Init.OneBitSampling = UART_ONE_BIT_SAMPLE_DISABLE;
 800265e:	6204      	str	r4, [r0, #32]
  huart1.AdvancedInit.AdvFeatureInit = UART_ADVFEATURE_NO_INIT;
 8002660:	6244      	str	r4, [r0, #36]	; 0x24
  if (HAL_UART_Init(&huart1) != HAL_OK)
 8002662:	f004 fa1d 	bl	8006aa0 <HAL_UART_Init>
 8002666:	2800      	cmp	r0, #0
 8002668:	d101      	bne.n	800266e <bsp_uart_init+0x7e>
  }
  /* USER CODE BEGIN USART1_Init 2 */
  

  /* USER CODE END USART1_Init 2 */
}
 800266a:	b007      	add	sp, #28
 800266c:	bd30      	pop	{r4, r5, pc}
    Error_Handler();
 800266e:	f000 fa35 	bl	8002adc <Error_Handler>
}
 8002672:	e7fa      	b.n	800266a <bsp_uart_init+0x7a>
 8002674:	40021000 	.word	0x40021000
 8002678:	200005d0 	.word	0x200005d0
 800267c:	40013800 	.word	0x40013800

08002680 <HAL_UART_MspInit>:

void HAL_UART_MspInit(UART_HandleTypeDef* uartHandle)
{
 8002680:	b510      	push	{r4, lr}
 8002682:	0004      	movs	r4, r0
 8002684:	b088      	sub	sp, #32

  GPIO_InitTypeDef GPIO_InitStruct = {0};
 8002686:	2214      	movs	r2, #20
 8002688:	2100      	movs	r1, #0
 800268a:	a803      	add	r0, sp, #12
 800268c:	f005 fb48 	bl	8007d20 <memset>
  if(uartHandle->Instance==USART1)
 8002690:	4b17      	ldr	r3, [pc, #92]	; (80026f0 <HAL_UART_MspInit+0x70>)
 8002692:	6822      	ldr	r2, [r4, #0]
 8002694:	429a      	cmp	r2, r3
 8002696:	d001      	beq.n	800269c <HAL_UART_MspInit+0x1c>
    HAL_NVIC_EnableIRQ(USART1_IRQn);
  /* USER CODE BEGIN USART1_MspInit 1 */

  /* USER CODE END USART1_MspInit 1 */
  }
}
 8002698:	b008      	add	sp, #32
 800269a:	bd10      	pop	{r4, pc}
    __HAL_RCC_USART1_CLK_ENABLE();
 800269c:	2080      	movs	r0, #128	; 0x80
 800269e:	4b15      	ldr	r3, [pc, #84]	; (80026f4 <HAL_UART_MspInit+0x74>)
 80026a0:	01c0      	lsls	r0, r0, #7
 80026a2:	6999      	ldr	r1, [r3, #24]
 80026a4:	4301      	orrs	r1, r0
 80026a6:	6199      	str	r1, [r3, #24]
    __HAL_RCC_GPIOA_CLK_ENABLE();
 80026a8:	2180      	movs	r1, #128	; 0x80
    __HAL_RCC_USART1_CLK_ENABLE();
 80026aa:	699a      	ldr	r2, [r3, #24]
    __HAL_RCC_GPIOA_CLK_ENABLE();
 80026ac:	0289      	lsls	r1, r1, #10
    __HAL_RCC_USART1_CLK_ENABLE();
 80026ae:	4002      	ands	r2, r0
 80026b0:	9201      	str	r2, [sp, #4]
 80026b2:	9a01      	ldr	r2, [sp, #4]
    __HAL_RCC_GPIOA_CLK_ENABLE();
 80026b4:	695a      	ldr	r2, [r3, #20]
    HAL_GPIO_Init(GPIOA, &GPIO_InitStruct);
 80026b6:	2090      	movs	r0, #144	; 0x90
    __HAL_RCC_GPIOA_CLK_ENABLE();
 80026b8:	430a      	orrs	r2, r1
 80026ba:	615a      	str	r2, [r3, #20]
 80026bc:	695b      	ldr	r3, [r3, #20]
    HAL_GPIO_Init(GPIOA, &GPIO_InitStruct);
 80026be:	05c0      	lsls	r0, r0, #23
    __HAL_RCC_GPIOA_CLK_ENABLE();
 80026c0:	400b      	ands	r3, r1
 80026c2:	9302      	str	r3, [sp, #8]
 80026c4:	9b02      	ldr	r3, [sp, #8]
    GPIO_InitStruct.Pin = GPIO_PIN_9|GPIO_PIN_10;
 80026c6:	23c0      	movs	r3, #192	; 0xc0
 80026c8:	00db      	lsls	r3, r3, #3
 80026ca:	9303      	str	r3, [sp, #12]
    GPIO_InitStruct.Mode = GPIO_MODE_AF_PP;
 80026cc:	2302      	movs	r3, #2
 80026ce:	9304      	str	r3, [sp, #16]
    GPIO_InitStruct.Speed = GPIO_SPEED_FREQ_HIGH;
 80026d0:	3301      	adds	r3, #1
 80026d2:	9306      	str	r3, [sp, #24]
    HAL_GPIO_Init(GPIOA, &GPIO_InitStruct);
 80026d4:	a903      	add	r1, sp, #12
    GPIO_InitStruct.Alternate = GPIO_AF1_USART1;
 80026d6:	3b02      	subs	r3, #2
 80026d8:	9307      	str	r3, [sp, #28]
    HAL_GPIO_Init(GPIOA, &GPIO_InitStruct);
 80026da:	f002 fddb 	bl	8005294 <HAL_GPIO_Init>
    HAL_NVIC_SetPriority(USART1_IRQn, 3, 0);
 80026de:	2200      	movs	r2, #0
 80026e0:	2103      	movs	r1, #3
 80026e2:	201b      	movs	r0, #27
 80026e4:	f002 fce6 	bl	80050b4 <HAL_NVIC_SetPriority>
    HAL_NVIC_EnableIRQ(USART1_IRQn);
 80026e8:	201b      	movs	r0, #27
 80026ea:	f002 fd15 	bl	8005118 <HAL_NVIC_EnableIRQ>
}
 80026ee:	e7d3      	b.n	8002698 <HAL_UART_MspInit+0x18>
 80026f0:	40013800 	.word	0x40013800
 80026f4:	40021000 	.word	0x40021000

080026f8 <HAL_UART_MspDeInit>:

void HAL_UART_MspDeInit(UART_HandleTypeDef* uartHandle)
{

  if(uartHandle->Instance==USART1)
 80026f8:	4b0a      	ldr	r3, [pc, #40]	; (8002724 <HAL_UART_MspDeInit+0x2c>)
 80026fa:	6802      	ldr	r2, [r0, #0]
{
 80026fc:	b510      	push	{r4, lr}
  if(uartHandle->Instance==USART1)
 80026fe:	429a      	cmp	r2, r3
 8002700:	d000      	beq.n	8002704 <HAL_UART_MspDeInit+0xc>
    HAL_NVIC_DisableIRQ(USART1_IRQn);
  /* USER CODE BEGIN USART1_MspDeInit 1 */

  /* USER CODE END USART1_MspDeInit 1 */
  }
}
 8002702:	bd10      	pop	{r4, pc}
    __HAL_RCC_USART1_CLK_DISABLE();
 8002704:	4a08      	ldr	r2, [pc, #32]	; (8002728 <HAL_UART_MspDeInit+0x30>)
 8002706:	4909      	ldr	r1, [pc, #36]	; (800272c <HAL_UART_MspDeInit+0x34>)
 8002708:	6993      	ldr	r3, [r2, #24]
    HAL_GPIO_DeInit(GPIOA, GPIO_PIN_9|GPIO_PIN_10);
 800270a:	2090      	movs	r0, #144	; 0x90
    __HAL_RCC_USART1_CLK_DISABLE();
 800270c:	400b      	ands	r3, r1
    HAL_GPIO_DeInit(GPIOA, GPIO_PIN_9|GPIO_PIN_10);
 800270e:	21c0      	movs	r1, #192	; 0xc0
    __HAL_RCC_USART1_CLK_DISABLE();
 8002710:	6193      	str	r3, [r2, #24]
    HAL_GPIO_DeInit(GPIOA, GPIO_PIN_9|GPIO_PIN_10);
 8002712:	00c9      	lsls	r1, r1, #3
 8002714:	05c0      	lsls	r0, r0, #23
 8002716:	f002 fed9 	bl	80054cc <HAL_GPIO_DeInit>
    HAL_NVIC_DisableIRQ(USART1_IRQn);
 800271a:	201b      	movs	r0, #27
 800271c:	f002 fd08 	bl	8005130 <HAL_NVIC_DisableIRQ>
}
 8002720:	e7ef      	b.n	8002702 <HAL_UART_MspDeInit+0xa>
 8002722:	46c0      	nop			; (mov r8, r8)
 8002724:	40013800 	.word	0x40013800
 8002728:	40021000 	.word	0x40021000
 800272c:	ffffbfff 	.word	0xffffbfff

08002730 <pvPortMalloc>:
PRIVILEGED_DATA static size_t xNumberOfSuccessfulFrees = ( size_t ) 0U;

/*-----------------------------------------------------------*/

void * pvPortMalloc( size_t xWantedSize )
{
 8002730:	b5f8      	push	{r3, r4, r5, r6, r7, lr}
 8002732:	46ce      	mov	lr, r9
 8002734:	4647      	mov	r7, r8
    BlockLink_t * pxPreviousBlock;
    BlockLink_t * pxNewBlockLink;
    void * pvReturn = NULL;
    size_t xAdditionalRequiredSize;

    if( xWantedSize > 0 )
 8002736:	1e43      	subs	r3, r0, #1
{
 8002738:	b580      	push	{r7, lr}
    if( xWantedSize > 0 )
 800273a:	330a      	adds	r3, #10
 800273c:	d820      	bhi.n	8002780 <pvPortMalloc+0x50>
        {
            xWantedSize += xHeapStructSize;

            /* Ensure that blocks are always aligned to the required number
             * of bytes. */
            if( ( xWantedSize & portBYTE_ALIGNMENT_MASK ) != 0x00 )
 800273e:	2307      	movs	r3, #7
 8002740:	001a      	movs	r2, r3
            xWantedSize += xHeapStructSize;
 8002742:	3008      	adds	r0, #8
 8002744:	0004      	movs	r4, r0
            if( ( xWantedSize & portBYTE_ALIGNMENT_MASK ) != 0x00 )
 8002746:	4002      	ands	r2, r0
 8002748:	4203      	tst	r3, r0
 800274a:	d145      	bne.n	80027d8 <pvPortMalloc+0xa8>
    else
    {
        mtCOVERAGE_TEST_MARKER();
    }

    vTaskSuspendAll();
 800274c:	f004 feaa 	bl	80074a4 <vTaskSuspendAll>
    {
        /* If this is the first call to malloc then the heap will require
         * initialisation to setup the list of free blocks. */
        if( pxEnd == NULL )
 8002750:	4d4c      	ldr	r5, [pc, #304]	; (8002884 <pvPortMalloc+0x154>)
         * top bit is set.  The top bit of the block size member of the BlockLink_t
         * structure is used to determine who owns the block - the application or
         * the kernel, so it must be free. */
        if( heapBLOCK_SIZE_IS_VALID( xWantedSize ) != 0 )
        {
            if( ( xWantedSize > 0 ) && ( xWantedSize <= xFreeBytesRemaining ) )
 8002752:	0026      	movs	r6, r4
        if( pxEnd == NULL )
 8002754:	682b      	ldr	r3, [r5, #0]
 8002756:	2b00      	cmp	r3, #0
 8002758:	d047      	beq.n	80027ea <pvPortMalloc+0xba>
            if( ( xWantedSize > 0 ) && ( xWantedSize <= xFreeBytesRemaining ) )
 800275a:	2e00      	cmp	r6, #0
 800275c:	dd16      	ble.n	800278c <pvPortMalloc+0x5c>
 800275e:	4b4a      	ldr	r3, [pc, #296]	; (8002888 <pvPortMalloc+0x158>)
 8002760:	4698      	mov	r8, r3
 8002762:	681b      	ldr	r3, [r3, #0]
 8002764:	469c      	mov	ip, r3
 8002766:	42a3      	cmp	r3, r4
 8002768:	d310      	bcc.n	800278c <pvPortMalloc+0x5c>
            {
                /* Traverse the list from the start (lowest address) block until
                 * one of adequate size is found. */
                pxPreviousBlock = &xStart;
                pxBlock = heapPROTECT_BLOCK_POINTER( xStart.pxNextFreeBlock );
 800276a:	4e48      	ldr	r6, [pc, #288]	; (800288c <pvPortMalloc+0x15c>)
                heapVALIDATE_BLOCK_POINTER( pxBlock );
 800276c:	4848      	ldr	r0, [pc, #288]	; (8002890 <pvPortMalloc+0x160>)
                pxBlock = heapPROTECT_BLOCK_POINTER( xStart.pxNextFreeBlock );
 800276e:	6833      	ldr	r3, [r6, #0]
                heapVALIDATE_BLOCK_POINTER( pxBlock );
 8002770:	4283      	cmp	r3, r0
 8002772:	d303      	bcc.n	800277c <pvPortMalloc+0x4c>
 8002774:	4a47      	ldr	r2, [pc, #284]	; (8002894 <pvPortMalloc+0x164>)
 8002776:	1887      	adds	r7, r0, r2
 8002778:	42bb      	cmp	r3, r7
 800277a:	d918      	bls.n	80027ae <pvPortMalloc+0x7e>
 800277c:	b672      	cpsid	i
 800277e:	e7fe      	b.n	800277e <pvPortMalloc+0x4e>
    vTaskSuspendAll();
 8002780:	f004 fe90 	bl	80074a4 <vTaskSuspendAll>
        if( pxEnd == NULL )
 8002784:	4d3f      	ldr	r5, [pc, #252]	; (8002884 <pvPortMalloc+0x154>)
 8002786:	682b      	ldr	r3, [r5, #0]
 8002788:	2b00      	cmp	r3, #0
 800278a:	d02c      	beq.n	80027e6 <pvPortMalloc+0xb6>
            mtCOVERAGE_TEST_MARKER();
        }

        traceMALLOC( pvReturn, xWantedSize );
    }
    ( void ) xTaskResumeAll();
 800278c:	f004 fe92 	bl	80074b4 <xTaskResumeAll>
 8002790:	2500      	movs	r5, #0
    }
    #endif /* if ( configUSE_MALLOC_FAILED_HOOK == 1 ) */

    configASSERT( ( ( ( size_t ) pvReturn ) & ( size_t ) portBYTE_ALIGNMENT_MASK ) == 0 );
    return pvReturn;
}
 8002792:	0028      	movs	r0, r5
 8002794:	bcc0      	pop	{r6, r7}
 8002796:	46b9      	mov	r9, r7
 8002798:	46b0      	mov	r8, r6
 800279a:	bdf8      	pop	{r3, r4, r5, r6, r7, pc}
                while( ( pxBlock->xBlockSize < xWantedSize ) && ( pxBlock->pxNextFreeBlock != heapPROTECT_BLOCK_POINTER( NULL ) ) )
 800279c:	681a      	ldr	r2, [r3, #0]
 800279e:	2a00      	cmp	r2, #0
 80027a0:	d008      	beq.n	80027b4 <pvPortMalloc+0x84>
                    heapVALIDATE_BLOCK_POINTER( pxBlock );
 80027a2:	4282      	cmp	r2, r0
 80027a4:	d343      	bcc.n	800282e <pvPortMalloc+0xfe>
 80027a6:	001e      	movs	r6, r3
 80027a8:	42ba      	cmp	r2, r7
 80027aa:	d840      	bhi.n	800282e <pvPortMalloc+0xfe>
 80027ac:	0013      	movs	r3, r2
                while( ( pxBlock->xBlockSize < xWantedSize ) && ( pxBlock->pxNextFreeBlock != heapPROTECT_BLOCK_POINTER( NULL ) ) )
 80027ae:	6859      	ldr	r1, [r3, #4]
 80027b0:	42a1      	cmp	r1, r4
 80027b2:	d3f3      	bcc.n	800279c <pvPortMalloc+0x6c>
                if( pxBlock != pxEnd )
 80027b4:	682a      	ldr	r2, [r5, #0]
 80027b6:	429a      	cmp	r2, r3
 80027b8:	d0e8      	beq.n	800278c <pvPortMalloc+0x5c>
                    pvReturn = ( void * ) ( ( ( uint8_t * ) heapPROTECT_BLOCK_POINTER( pxPreviousBlock->pxNextFreeBlock ) ) + xHeapStructSize );
 80027ba:	6835      	ldr	r5, [r6, #0]
 80027bc:	3508      	adds	r5, #8
                    heapVALIDATE_BLOCK_POINTER( pvReturn );
 80027be:	4285      	cmp	r5, r0
 80027c0:	d337      	bcc.n	8002832 <pvPortMalloc+0x102>
 80027c2:	4a34      	ldr	r2, [pc, #208]	; (8002894 <pvPortMalloc+0x164>)
 80027c4:	4691      	mov	r9, r2
 80027c6:	4448      	add	r0, r9
 80027c8:	4285      	cmp	r5, r0
 80027ca:	d832      	bhi.n	8002832 <pvPortMalloc+0x102>
                    pxPreviousBlock->pxNextFreeBlock = pxBlock->pxNextFreeBlock;
 80027cc:	6818      	ldr	r0, [r3, #0]
 80027ce:	6030      	str	r0, [r6, #0]
                    configASSERT( heapSUBTRACT_WILL_UNDERFLOW( pxBlock->xBlockSize, xWantedSize ) == 0 );
 80027d0:	42a1      	cmp	r1, r4
 80027d2:	d230      	bcs.n	8002836 <pvPortMalloc+0x106>
 80027d4:	b672      	cpsid	i
 80027d6:	e7fe      	b.n	80027d6 <pvPortMalloc+0xa6>
                xAdditionalRequiredSize = portBYTE_ALIGNMENT - ( xWantedSize & portBYTE_ALIGNMENT_MASK );
 80027d8:	3301      	adds	r3, #1
 80027da:	1a9b      	subs	r3, r3, r2
                if( heapADD_WILL_OVERFLOW( xWantedSize, xAdditionalRequiredSize ) == 0 )
 80027dc:	43da      	mvns	r2, r3
 80027de:	4282      	cmp	r2, r0
 80027e0:	d3ce      	bcc.n	8002780 <pvPortMalloc+0x50>
                    xWantedSize += xAdditionalRequiredSize;
 80027e2:	18c4      	adds	r4, r0, r3
 80027e4:	e7b2      	b.n	800274c <pvPortMalloc+0x1c>
        if( pxEnd == NULL )
 80027e6:	2600      	movs	r6, #0
 80027e8:	2400      	movs	r4, #0
    size_t xTotalHeapSize = configTOTAL_HEAP_SIZE;

    /* Ensure the heap starts on a correctly aligned boundary. */
    uxStartAddress = ( portPOINTER_SIZE_TYPE ) ucHeap;

    if( ( uxStartAddress & portBYTE_ALIGNMENT_MASK ) != 0 )
 80027ea:	2307      	movs	r3, #7
    uxStartAddress = ( portPOINTER_SIZE_TYPE ) ucHeap;
 80027ec:	4928      	ldr	r1, [pc, #160]	; (8002890 <pvPortMalloc+0x160>)
    if( ( uxStartAddress & portBYTE_ALIGNMENT_MASK ) != 0 )
 80027ee:	420b      	tst	r3, r1
 80027f0:	d116      	bne.n	8002820 <pvPortMalloc+0xf0>
    xStart.pxNextFreeBlock = ( void * ) heapPROTECT_BLOCK_POINTER( uxStartAddress );
    xStart.xBlockSize = ( size_t ) 0;

    /* pxEnd is used to mark the end of the list of free blocks and is inserted
     * at the end of the heap space. */
    uxEndAddress = uxStartAddress + ( portPOINTER_SIZE_TYPE ) xTotalHeapSize;
 80027f2:	23a0      	movs	r3, #160	; 0xa0
 80027f4:	000a      	movs	r2, r1
 80027f6:	0008      	movs	r0, r1
 80027f8:	01db      	lsls	r3, r3, #7
 80027fa:	18cb      	adds	r3, r1, r3
    xStart.xBlockSize = ( size_t ) 0;
 80027fc:	2100      	movs	r1, #0
    xStart.pxNextFreeBlock = ( void * ) heapPROTECT_BLOCK_POINTER( uxStartAddress );
 80027fe:	4f23      	ldr	r7, [pc, #140]	; (800288c <pvPortMalloc+0x15c>)
    uxEndAddress -= ( portPOINTER_SIZE_TYPE ) xHeapStructSize;
 8002800:	3b08      	subs	r3, #8
    xStart.xBlockSize = ( size_t ) 0;
 8002802:	6079      	str	r1, [r7, #4]
    xStart.pxNextFreeBlock = ( void * ) heapPROTECT_BLOCK_POINTER( uxStartAddress );
 8002804:	6038      	str	r0, [r7, #0]
    uxEndAddress &= ~( ( portPOINTER_SIZE_TYPE ) portBYTE_ALIGNMENT_MASK );
 8002806:	2707      	movs	r7, #7
 8002808:	43bb      	bics	r3, r7
    pxEnd = ( BlockLink_t * ) uxEndAddress;
    pxEnd->xBlockSize = 0;
    pxEnd->pxNextFreeBlock = heapPROTECT_BLOCK_POINTER( NULL );
 800280a:	6019      	str	r1, [r3, #0]

    /* To start with there is a single free block that is sized to take up the
     * entire heap space, minus the space taken by pxEnd. */
    pxFirstFreeBlock = ( BlockLink_t * ) uxStartAddress;
    pxFirstFreeBlock->xBlockSize = ( size_t ) ( uxEndAddress - ( portPOINTER_SIZE_TYPE ) pxFirstFreeBlock );
 800280c:	1a9a      	subs	r2, r3, r2
    pxEnd->xBlockSize = 0;
 800280e:	6059      	str	r1, [r3, #4]
    pxEnd = ( BlockLink_t * ) uxEndAddress;
 8002810:	602b      	str	r3, [r5, #0]
    pxFirstFreeBlock->pxNextFreeBlock = heapPROTECT_BLOCK_POINTER( pxEnd );
 8002812:	6003      	str	r3, [r0, #0]

    /* Only one block exists - and it covers the entire usable heap space. */
    xMinimumEverFreeBytesRemaining = pxFirstFreeBlock->xBlockSize;
 8002814:	4b20      	ldr	r3, [pc, #128]	; (8002898 <pvPortMalloc+0x168>)
    pxFirstFreeBlock->xBlockSize = ( size_t ) ( uxEndAddress - ( portPOINTER_SIZE_TYPE ) pxFirstFreeBlock );
 8002816:	6042      	str	r2, [r0, #4]
    xMinimumEverFreeBytesRemaining = pxFirstFreeBlock->xBlockSize;
 8002818:	601a      	str	r2, [r3, #0]
    xFreeBytesRemaining = pxFirstFreeBlock->xBlockSize;
 800281a:	4b1b      	ldr	r3, [pc, #108]	; (8002888 <pvPortMalloc+0x158>)
 800281c:	601a      	str	r2, [r3, #0]
}
 800281e:	e79c      	b.n	800275a <pvPortMalloc+0x2a>
        uxStartAddress += ( portBYTE_ALIGNMENT - 1 );
 8002820:	1dca      	adds	r2, r1, #7
        uxStartAddress &= ~( ( portPOINTER_SIZE_TYPE ) portBYTE_ALIGNMENT_MASK );
 8002822:	439a      	bics	r2, r3
        xTotalHeapSize -= ( size_t ) ( uxStartAddress - ( portPOINTER_SIZE_TYPE ) ucHeap );
 8002824:	23a0      	movs	r3, #160	; 0xa0
 8002826:	01db      	lsls	r3, r3, #7
    xStart.pxNextFreeBlock = ( void * ) heapPROTECT_BLOCK_POINTER( uxStartAddress );
 8002828:	0010      	movs	r0, r2
 800282a:	18cb      	adds	r3, r1, r3
 800282c:	e7e6      	b.n	80027fc <pvPortMalloc+0xcc>
                    heapVALIDATE_BLOCK_POINTER( pxBlock );
 800282e:	b672      	cpsid	i
 8002830:	e7fe      	b.n	8002830 <pvPortMalloc+0x100>
                    heapVALIDATE_BLOCK_POINTER( pvReturn );
 8002832:	b672      	cpsid	i
 8002834:	e7fe      	b.n	8002834 <pvPortMalloc+0x104>
                    if( ( pxBlock->xBlockSize - xWantedSize ) > heapMINIMUM_BLOCK_SIZE )
 8002836:	1b0f      	subs	r7, r1, r4
 8002838:	2f10      	cmp	r7, #16
 800283a:	d908      	bls.n	800284e <pvPortMalloc+0x11e>
                        pxNewBlockLink = ( void * ) ( ( ( uint8_t * ) pxBlock ) + xWantedSize );
 800283c:	191a      	adds	r2, r3, r4
                        configASSERT( ( ( ( size_t ) pxNewBlockLink ) & portBYTE_ALIGNMENT_MASK ) == 0 );
 800283e:	0751      	lsls	r1, r2, #29
 8002840:	d001      	beq.n	8002846 <pvPortMalloc+0x116>
 8002842:	b672      	cpsid	i
 8002844:	e7fe      	b.n	8002844 <pvPortMalloc+0x114>
                        pxNewBlockLink->xBlockSize = pxBlock->xBlockSize - xWantedSize;
 8002846:	0021      	movs	r1, r4
 8002848:	6057      	str	r7, [r2, #4]
                        pxNewBlockLink->pxNextFreeBlock = pxPreviousBlock->pxNextFreeBlock;
 800284a:	6010      	str	r0, [r2, #0]
                        pxPreviousBlock->pxNextFreeBlock = heapPROTECT_BLOCK_POINTER( pxNewBlockLink );
 800284c:	6032      	str	r2, [r6, #0]
                    xFreeBytesRemaining -= pxBlock->xBlockSize;
 800284e:	4662      	mov	r2, ip
 8002850:	4640      	mov	r0, r8
 8002852:	1a52      	subs	r2, r2, r1
 8002854:	6002      	str	r2, [r0, #0]
                    if( xFreeBytesRemaining < xMinimumEverFreeBytesRemaining )
 8002856:	4810      	ldr	r0, [pc, #64]	; (8002898 <pvPortMalloc+0x168>)
 8002858:	6804      	ldr	r4, [r0, #0]
 800285a:	42a2      	cmp	r2, r4
 800285c:	d200      	bcs.n	8002860 <pvPortMalloc+0x130>
                        xMinimumEverFreeBytesRemaining = xFreeBytesRemaining;
 800285e:	6002      	str	r2, [r0, #0]
                    heapALLOCATE_BLOCK( pxBlock );
 8002860:	2280      	movs	r2, #128	; 0x80
 8002862:	0612      	lsls	r2, r2, #24
 8002864:	4311      	orrs	r1, r2
                    pxBlock->pxNextFreeBlock = NULL;
 8002866:	2200      	movs	r2, #0
 8002868:	601a      	str	r2, [r3, #0]
                    xNumberOfSuccessfulAllocations++;
 800286a:	4a0c      	ldr	r2, [pc, #48]	; (800289c <pvPortMalloc+0x16c>)
                    heapALLOCATE_BLOCK( pxBlock );
 800286c:	6059      	str	r1, [r3, #4]
                    xNumberOfSuccessfulAllocations++;
 800286e:	6813      	ldr	r3, [r2, #0]
 8002870:	3301      	adds	r3, #1
 8002872:	6013      	str	r3, [r2, #0]
    ( void ) xTaskResumeAll();
 8002874:	f004 fe1e 	bl	80074b4 <xTaskResumeAll>
    configASSERT( ( ( ( size_t ) pvReturn ) & ( size_t ) portBYTE_ALIGNMENT_MASK ) == 0 );
 8002878:	076b      	lsls	r3, r5, #29
 800287a:	d100      	bne.n	800287e <pvPortMalloc+0x14e>
 800287c:	e789      	b.n	8002792 <pvPortMalloc+0x62>
 800287e:	b672      	cpsid	i
 8002880:	e7fe      	b.n	8002880 <pvPortMalloc+0x150>
 8002882:	46c0      	nop			; (mov r8, r8)
 8002884:	20000658 	.word	0x20000658
 8002888:	2000565c 	.word	0x2000565c
 800288c:	2000566c 	.word	0x2000566c
 8002890:	2000065c 	.word	0x2000065c
 8002894:	00004fff 	.word	0x00004fff
 8002898:	20005660 	.word	0x20005660
 800289c:	20005664 	.word	0x20005664

080028a0 <vPortFree>:
{
 80028a0:	b570      	push	{r4, r5, r6, lr}
    if( pv != NULL )
 80028a2:	2800      	cmp	r0, #0
 80028a4:	d03d      	beq.n	8002922 <vPortFree+0x82>
        puc -= xHeapStructSize;
 80028a6:	0004      	movs	r4, r0
        heapVALIDATE_BLOCK_POINTER( pxLink );
 80028a8:	4d2c      	ldr	r5, [pc, #176]	; (800295c <vPortFree+0xbc>)
        puc -= xHeapStructSize;
 80028aa:	3c08      	subs	r4, #8
 80028ac:	0026      	movs	r6, r4
        heapVALIDATE_BLOCK_POINTER( pxLink );
 80028ae:	42ac      	cmp	r4, r5
 80028b0:	d308      	bcc.n	80028c4 <vPortFree+0x24>
 80028b2:	4b2b      	ldr	r3, [pc, #172]	; (8002960 <vPortFree+0xc0>)
 80028b4:	18eb      	adds	r3, r5, r3
 80028b6:	429c      	cmp	r4, r3
 80028b8:	d804      	bhi.n	80028c4 <vPortFree+0x24>
        configASSERT( heapBLOCK_IS_ALLOCATED( pxLink ) != 0 );
 80028ba:	6863      	ldr	r3, [r4, #4]
 80028bc:	2b00      	cmp	r3, #0
 80028be:	db31      	blt.n	8002924 <vPortFree+0x84>
 80028c0:	b672      	cpsid	i
 80028c2:	e7fe      	b.n	80028c2 <vPortFree+0x22>
        heapVALIDATE_BLOCK_POINTER( pxLink );
 80028c4:	b672      	cpsid	i
 80028c6:	e7fe      	b.n	80028c6 <vPortFree+0x26>
                heapFREE_BLOCK( pxLink );
 80028c8:	005a      	lsls	r2, r3, #1
                    if( heapSUBTRACT_WILL_UNDERFLOW( pxLink->xBlockSize, xHeapStructSize ) == 0 )
 80028ca:	4926      	ldr	r1, [pc, #152]	; (8002964 <vPortFree+0xc4>)
                heapFREE_BLOCK( pxLink );
 80028cc:	0852      	lsrs	r2, r2, #1
 80028ce:	6062      	str	r2, [r4, #4]
                    if( heapSUBTRACT_WILL_UNDERFLOW( pxLink->xBlockSize, xHeapStructSize ) == 0 )
 80028d0:	420b      	tst	r3, r1
 80028d2:	d13d      	bne.n	8002950 <vPortFree+0xb0>
                vTaskSuspendAll();
 80028d4:	f004 fde6 	bl	80074a4 <vTaskSuspendAll>
                    xFreeBytesRemaining += pxLink->xBlockSize;
 80028d8:	4a23      	ldr	r2, [pc, #140]	; (8002968 <vPortFree+0xc8>)
 80028da:	6861      	ldr	r1, [r4, #4]
 80028dc:	6813      	ldr	r3, [r2, #0]
    BlockLink_t * pxIterator;
    uint8_t * puc;

    /* Iterate through the list until a block is found that has a higher address
     * than the block being inserted. */
    for( pxIterator = &xStart; heapPROTECT_BLOCK_POINTER( pxIterator->pxNextFreeBlock ) < pxBlockToInsert; pxIterator = heapPROTECT_BLOCK_POINTER( pxIterator->pxNextFreeBlock ) )
 80028de:	4823      	ldr	r0, [pc, #140]	; (800296c <vPortFree+0xcc>)
                    xFreeBytesRemaining += pxLink->xBlockSize;
 80028e0:	185b      	adds	r3, r3, r1
 80028e2:	6013      	str	r3, [r2, #0]
    for( pxIterator = &xStart; heapPROTECT_BLOCK_POINTER( pxIterator->pxNextFreeBlock ) < pxBlockToInsert; pxIterator = heapPROTECT_BLOCK_POINTER( pxIterator->pxNextFreeBlock ) )
 80028e4:	0003      	movs	r3, r0
 80028e6:	001a      	movs	r2, r3
 80028e8:	681b      	ldr	r3, [r3, #0]
 80028ea:	429c      	cmp	r4, r3
 80028ec:	d8fb      	bhi.n	80028e6 <vPortFree+0x46>
    {
        /* Nothing to do here, just iterate to the right position. */
    }

    if( pxIterator != &xStart )
 80028ee:	4282      	cmp	r2, r0
 80028f0:	d006      	beq.n	8002900 <vPortFree+0x60>
    {
        heapVALIDATE_BLOCK_POINTER( pxIterator );
 80028f2:	42aa      	cmp	r2, r5
 80028f4:	d326      	bcc.n	8002944 <vPortFree+0xa4>
 80028f6:	481a      	ldr	r0, [pc, #104]	; (8002960 <vPortFree+0xc0>)
 80028f8:	4684      	mov	ip, r0
 80028fa:	4465      	add	r5, ip
 80028fc:	42aa      	cmp	r2, r5
 80028fe:	d821      	bhi.n	8002944 <vPortFree+0xa4>

    /* Do the block being inserted, and the block it is being inserted after
     * make a contiguous block of memory? */
    puc = ( uint8_t * ) pxIterator;

    if( ( puc + pxIterator->xBlockSize ) == ( uint8_t * ) pxBlockToInsert )
 8002900:	6850      	ldr	r0, [r2, #4]
 8002902:	1815      	adds	r5, r2, r0
 8002904:	42ac      	cmp	r4, r5
 8002906:	d01f      	beq.n	8002948 <vPortFree+0xa8>

    /* Do the block being inserted, and the block it is being inserted before
     * make a contiguous block of memory? */
    puc = ( uint8_t * ) pxBlockToInsert;

    if( ( puc + pxBlockToInsert->xBlockSize ) == ( uint8_t * ) heapPROTECT_BLOCK_POINTER( pxIterator->pxNextFreeBlock ) )
 8002908:	1870      	adds	r0, r6, r1
 800290a:	4283      	cmp	r3, r0
 800290c:	d00f      	beq.n	800292e <vPortFree+0x8e>
            pxBlockToInsert->pxNextFreeBlock = heapPROTECT_BLOCK_POINTER( pxEnd );
        }
    }
    else
    {
        pxBlockToInsert->pxNextFreeBlock = pxIterator->pxNextFreeBlock;
 800290e:	6033      	str	r3, [r6, #0]

    /* If the block being inserted plugged a gab, so was merged with the block
     * before and the block after, then it's pxNextFreeBlock pointer will have
     * already been set, and should not be set here as that would make it point
     * to itself. */
    if( pxIterator != pxBlockToInsert )
 8002910:	42b2      	cmp	r2, r6
 8002912:	d000      	beq.n	8002916 <vPortFree+0x76>
    {
        pxIterator->pxNextFreeBlock = heapPROTECT_BLOCK_POINTER( pxBlockToInsert );
 8002914:	6016      	str	r6, [r2, #0]
                    xNumberOfSuccessfulFrees++;
 8002916:	4a16      	ldr	r2, [pc, #88]	; (8002970 <vPortFree+0xd0>)
 8002918:	6813      	ldr	r3, [r2, #0]
 800291a:	3301      	adds	r3, #1
 800291c:	6013      	str	r3, [r2, #0]
                ( void ) xTaskResumeAll();
 800291e:	f004 fdc9 	bl	80074b4 <xTaskResumeAll>
}
 8002922:	bd70      	pop	{r4, r5, r6, pc}
        configASSERT( pxLink->pxNextFreeBlock == NULL );
 8002924:	6822      	ldr	r2, [r4, #0]
 8002926:	2a00      	cmp	r2, #0
 8002928:	d0ce      	beq.n	80028c8 <vPortFree+0x28>
 800292a:	b672      	cpsid	i
 800292c:	e7fe      	b.n	800292c <vPortFree+0x8c>
        if( heapPROTECT_BLOCK_POINTER( pxIterator->pxNextFreeBlock ) != pxEnd )
 800292e:	4811      	ldr	r0, [pc, #68]	; (8002974 <vPortFree+0xd4>)
 8002930:	6800      	ldr	r0, [r0, #0]
 8002932:	4283      	cmp	r3, r0
 8002934:	d0eb      	beq.n	800290e <vPortFree+0x6e>
            pxBlockToInsert->xBlockSize += heapPROTECT_BLOCK_POINTER( pxIterator->pxNextFreeBlock )->xBlockSize;
 8002936:	6858      	ldr	r0, [r3, #4]
            pxBlockToInsert->pxNextFreeBlock = heapPROTECT_BLOCK_POINTER( pxIterator->pxNextFreeBlock )->pxNextFreeBlock;
 8002938:	681b      	ldr	r3, [r3, #0]
            pxBlockToInsert->xBlockSize += heapPROTECT_BLOCK_POINTER( pxIterator->pxNextFreeBlock )->xBlockSize;
 800293a:	4684      	mov	ip, r0
 800293c:	4461      	add	r1, ip
 800293e:	6071      	str	r1, [r6, #4]
            pxBlockToInsert->pxNextFreeBlock = heapPROTECT_BLOCK_POINTER( pxIterator->pxNextFreeBlock )->pxNextFreeBlock;
 8002940:	6033      	str	r3, [r6, #0]
 8002942:	e7e5      	b.n	8002910 <vPortFree+0x70>
        heapVALIDATE_BLOCK_POINTER( pxIterator );
 8002944:	b672      	cpsid	i
 8002946:	e7fe      	b.n	8002946 <vPortFree+0xa6>
        pxIterator->xBlockSize += pxBlockToInsert->xBlockSize;
 8002948:	1809      	adds	r1, r1, r0
 800294a:	0016      	movs	r6, r2
 800294c:	6051      	str	r1, [r2, #4]
        pxBlockToInsert = pxIterator;
 800294e:	e7db      	b.n	8002908 <vPortFree+0x68>
                        ( void ) memset( puc + xHeapStructSize, 0, pxLink->xBlockSize - xHeapStructSize );
 8002950:	2100      	movs	r1, #0
 8002952:	3a08      	subs	r2, #8
 8002954:	f005 f9e4 	bl	8007d20 <memset>
 8002958:	e7bc      	b.n	80028d4 <vPortFree+0x34>
 800295a:	46c0      	nop			; (mov r8, r8)
 800295c:	2000065c 	.word	0x2000065c
 8002960:	00004fff 	.word	0x00004fff
 8002964:	7ffffff8 	.word	0x7ffffff8
 8002968:	2000565c 	.word	0x2000565c
 800296c:	2000566c 	.word	0x2000566c
 8002970:	20005668 	.word	0x20005668
 8002974:	20000658 	.word	0x20000658

08002978 <rt_hw_console_output>:
    return n;
}


rt_weak void rt_hw_console_output(const char *str)
{
 8002978:	b510      	push	{r4, lr}
    /* empty console output */

    myputstr(str);
 800297a:	f002 f9c9 	bl	8004d10 <myputstr>

}
 800297e:	bd10      	pop	{r4, pc}

08002980 <rt_kprintf>:
 * @param fmt is the format parameters.
 *
 * @return The number of characters actually written to buffer.
 */
rt_weak int rt_kprintf(const char *fmt, ...)
{
 8002980:	b40f      	push	{r0, r1, r2, r3}
 8002982:	b530      	push	{r4, r5, lr}
 8002984:	b083      	sub	sp, #12
 8002986:	ab06      	add	r3, sp, #24
    /* the return value of vsnprintf is the number of bytes that would be
     * written to buffer had if the size of the buffer been sufficiently
     * large excluding the terminating null byte. If the output string
     * would be larger than the rt_log_buf, we have to adjust the output
     * length. */
    length = rt_vsnprintf(rt_log_buf, sizeof(rt_log_buf) - 1, fmt, args);
 8002988:	4d09      	ldr	r5, [pc, #36]	; (80029b0 <rt_kprintf+0x30>)
{
 800298a:	cb04      	ldmia	r3!, {r2}
    length = rt_vsnprintf(rt_log_buf, sizeof(rt_log_buf) - 1, fmt, args);
 800298c:	217f      	movs	r1, #127	; 0x7f
 800298e:	0028      	movs	r0, r5
    va_start(args, fmt);
 8002990:	9301      	str	r3, [sp, #4]
    length = rt_vsnprintf(rt_log_buf, sizeof(rt_log_buf) - 1, fmt, args);
 8002992:	f001 fd23 	bl	80043dc <rt_vsnprintf>
 8002996:	0004      	movs	r4, r0
    if (length > RT_CONSOLEBUF_SIZE - 1)
    {
        length = RT_CONSOLEBUF_SIZE - 1;
    }

    rt_hw_console_output(rt_log_buf);
 8002998:	0028      	movs	r0, r5
 800299a:	f7ff ffed 	bl	8002978 <rt_hw_console_output>

    va_end(args);

    return length;
 800299e:	0020      	movs	r0, r4
 80029a0:	2c7f      	cmp	r4, #127	; 0x7f
 80029a2:	d900      	bls.n	80029a6 <rt_kprintf+0x26>
 80029a4:	207f      	movs	r0, #127	; 0x7f
}
 80029a6:	b003      	add	sp, #12
 80029a8:	bc30      	pop	{r4, r5}
 80029aa:	bc08      	pop	{r3}
 80029ac:	b004      	add	sp, #16
 80029ae:	4718      	bx	r3
 80029b0:	20005674 	.word	0x20005674

080029b4 <vListInitialise>:
    traceENTER_vListInitialise( pxList );

    /* The list structure contains a list item which is used to mark the
     * end of the list.  To initialise the list the list end is inserted
     * as the only list entry. */
    pxList->pxIndex = ( ListItem_t * ) &( pxList->xListEnd );
 80029b4:	0003      	movs	r3, r0
 80029b6:	3308      	adds	r3, #8

    listSET_FIRST_LIST_ITEM_INTEGRITY_CHECK_VALUE( &( pxList->xListEnd ) );

    /* The list end value is the highest possible value in the list to
     * ensure it remains at the end of the list. */
    pxList->xListEnd.xItemValue = portMAX_DELAY;
 80029b8:	2201      	movs	r2, #1
    pxList->pxIndex = ( ListItem_t * ) &( pxList->xListEnd );
 80029ba:	6043      	str	r3, [r0, #4]

    /* The list end next and previous pointers point to itself so we know
     * when the list is empty. */
    pxList->xListEnd.pxNext = ( ListItem_t * ) &( pxList->xListEnd );
 80029bc:	60c3      	str	r3, [r0, #12]
    pxList->xListEnd.pxPrevious = ( ListItem_t * ) &( pxList->xListEnd );
 80029be:	6103      	str	r3, [r0, #16]
        pxList->xListEnd.pxContainer = NULL;
        listSET_SECOND_LIST_ITEM_INTEGRITY_CHECK_VALUE( &( pxList->xListEnd ) );
    }
    #endif

    pxList->uxNumberOfItems = ( UBaseType_t ) 0U;
 80029c0:	2300      	movs	r3, #0
    pxList->xListEnd.xItemValue = portMAX_DELAY;
 80029c2:	4252      	negs	r2, r2
 80029c4:	6082      	str	r2, [r0, #8]
    pxList->uxNumberOfItems = ( UBaseType_t ) 0U;
 80029c6:	6003      	str	r3, [r0, #0]
     * configUSE_LIST_DATA_INTEGRITY_CHECK_BYTES is set to 1. */
    listSET_LIST_INTEGRITY_CHECK_1_VALUE( pxList );
    listSET_LIST_INTEGRITY_CHECK_2_VALUE( pxList );

    traceRETURN_vListInitialise();
}
 80029c8:	4770      	bx	lr
 80029ca:	46c0      	nop			; (mov r8, r8)

080029cc <vListInitialiseItem>:
void vListInitialiseItem( ListItem_t * const pxItem )
{
    traceENTER_vListInitialiseItem( pxItem );

    /* Make sure the list item is not recorded as being on a list. */
    pxItem->pxContainer = NULL;
 80029cc:	2300      	movs	r3, #0
 80029ce:	6103      	str	r3, [r0, #16]
     * configUSE_LIST_DATA_INTEGRITY_CHECK_BYTES is set to 1. */
    listSET_FIRST_LIST_ITEM_INTEGRITY_CHECK_VALUE( pxItem );
    listSET_SECOND_LIST_ITEM_INTEGRITY_CHECK_VALUE( pxItem );

    traceRETURN_vListInitialiseItem();
}
 80029d0:	4770      	bx	lr
 80029d2:	46c0      	nop			; (mov r8, r8)

080029d4 <vListInsert>:
        *   5) If the FreeRTOS port supports interrupt nesting then ensure that
        *      the priority of the tick interrupt is at or below
        *      configMAX_SYSCALL_INTERRUPT_PRIORITY.
        **********************************************************************/

        for( pxIterator = ( ListItem_t * ) &( pxList->xListEnd ); pxIterator->pxNext->xItemValue <= xValueOfInsertion; pxIterator = pxIterator->pxNext )
 80029d4:	0003      	movs	r3, r0
{
 80029d6:	b530      	push	{r4, r5, lr}
    const TickType_t xValueOfInsertion = pxNewListItem->xItemValue;
 80029d8:	680c      	ldr	r4, [r1, #0]
        for( pxIterator = ( ListItem_t * ) &( pxList->xListEnd ); pxIterator->pxNext->xItemValue <= xValueOfInsertion; pxIterator = pxIterator->pxNext )
 80029da:	3308      	adds	r3, #8
    if( xValueOfInsertion == portMAX_DELAY )
 80029dc:	1c62      	adds	r2, r4, #1
 80029de:	d00d      	beq.n	80029fc <vListInsert+0x28>
        for( pxIterator = ( ListItem_t * ) &( pxList->xListEnd ); pxIterator->pxNext->xItemValue <= xValueOfInsertion; pxIterator = pxIterator->pxNext )
 80029e0:	001a      	movs	r2, r3
 80029e2:	685b      	ldr	r3, [r3, #4]
 80029e4:	681d      	ldr	r5, [r3, #0]
 80029e6:	42a5      	cmp	r5, r4
 80029e8:	d9fa      	bls.n	80029e0 <vListInsert+0xc>
            /* There is nothing to do here, just iterating to the wanted
             * insertion position. */
        }
    }

    pxNewListItem->pxNext = pxIterator->pxNext;
 80029ea:	604b      	str	r3, [r1, #4]
    pxNewListItem->pxNext->pxPrevious = pxNewListItem;
 80029ec:	6099      	str	r1, [r3, #8]

    /* Remember which list the item is in.  This allows fast removal of the
     * item later. */
    pxNewListItem->pxContainer = pxList;

    ( pxList->uxNumberOfItems ) = ( UBaseType_t ) ( pxList->uxNumberOfItems + 1U );
 80029ee:	6803      	ldr	r3, [r0, #0]
    pxNewListItem->pxPrevious = pxIterator;
 80029f0:	608a      	str	r2, [r1, #8]
    ( pxList->uxNumberOfItems ) = ( UBaseType_t ) ( pxList->uxNumberOfItems + 1U );
 80029f2:	3301      	adds	r3, #1
    pxIterator->pxNext = pxNewListItem;
 80029f4:	6051      	str	r1, [r2, #4]
    pxNewListItem->pxContainer = pxList;
 80029f6:	6108      	str	r0, [r1, #16]
    ( pxList->uxNumberOfItems ) = ( UBaseType_t ) ( pxList->uxNumberOfItems + 1U );
 80029f8:	6003      	str	r3, [r0, #0]

    traceRETURN_vListInsert();
}
 80029fa:	bd30      	pop	{r4, r5, pc}
        pxIterator = pxList->xListEnd.pxPrevious;
 80029fc:	6902      	ldr	r2, [r0, #16]
    pxNewListItem->pxNext = pxIterator->pxNext;
 80029fe:	6853      	ldr	r3, [r2, #4]
 8002a00:	e7f3      	b.n	80029ea <vListInsert+0x16>
 8002a02:	46c0      	nop			; (mov r8, r8)

08002a04 <uxListRemove>:

UBaseType_t uxListRemove( ListItem_t * const pxItemToRemove )
{
    /* The list item knows which list it is in.  Obtain the list from the list
     * item. */
    List_t * const pxList = pxItemToRemove->pxContainer;
 8002a04:	6903      	ldr	r3, [r0, #16]

    traceENTER_uxListRemove( pxItemToRemove );

    pxItemToRemove->pxNext->pxPrevious = pxItemToRemove->pxPrevious;
 8002a06:	6841      	ldr	r1, [r0, #4]
 8002a08:	6882      	ldr	r2, [r0, #8]
 8002a0a:	608a      	str	r2, [r1, #8]
    pxItemToRemove->pxPrevious->pxNext = pxItemToRemove->pxNext;
 8002a0c:	6051      	str	r1, [r2, #4]

    /* Only used during decision coverage testing. */
    mtCOVERAGE_TEST_DELAY();

    /* Make sure the index is left pointing to a valid item. */
    if( pxList->pxIndex == pxItemToRemove )
 8002a0e:	6859      	ldr	r1, [r3, #4]
 8002a10:	4281      	cmp	r1, r0
 8002a12:	d005      	beq.n	8002a20 <uxListRemove+0x1c>
    else
    {
        mtCOVERAGE_TEST_MARKER();
    }

    pxItemToRemove->pxContainer = NULL;
 8002a14:	2200      	movs	r2, #0
 8002a16:	6102      	str	r2, [r0, #16]
    ( pxList->uxNumberOfItems ) = ( UBaseType_t ) ( pxList->uxNumberOfItems - 1U );
 8002a18:	681a      	ldr	r2, [r3, #0]
 8002a1a:	1e50      	subs	r0, r2, #1
 8002a1c:	6018      	str	r0, [r3, #0]

    traceRETURN_uxListRemove( pxList->uxNumberOfItems );

    return pxList->uxNumberOfItems;
}
 8002a1e:	4770      	bx	lr
        pxList->pxIndex = pxItemToRemove->pxPrevious;
 8002a20:	605a      	str	r2, [r3, #4]
 8002a22:	e7f7      	b.n	8002a14 <uxListRemove+0x10>

08002a24 <main>:
  * @brief  Main program
  * @param  None
  * @retval None
  */
int main(void)
{
 8002a24:	b510      	push	{r4, lr}
 8002a26:	b094      	sub	sp, #80	; 0x50
//	unsigned int cnt = 0;
  HAL_Init();
 8002a28:	f002 f986 	bl	8004d38 <HAL_Init>

static void SystemClock_Config(void)
{

#if 1
  RCC_OscInitTypeDef RCC_OscInitStruct = {0};
 8002a2c:	222c      	movs	r2, #44	; 0x2c
 8002a2e:	2100      	movs	r1, #0
 8002a30:	a809      	add	r0, sp, #36	; 0x24
 8002a32:	f005 f975 	bl	8007d20 <memset>
  RCC_ClkInitTypeDef RCC_ClkInitStruct = {0};
 8002a36:	2210      	movs	r2, #16
 8002a38:	2100      	movs	r1, #0
 8002a3a:	4668      	mov	r0, sp
 8002a3c:	f005 f970 	bl	8007d20 <memset>
  RCC_PeriphCLKInitTypeDef PeriphClkInit = {0};
 8002a40:	2210      	movs	r2, #16
 8002a42:	2100      	movs	r1, #0
 8002a44:	a804      	add	r0, sp, #16
 8002a46:	f005 f96b 	bl	8007d20 <memset>

  /** Initializes the RCC Oscillators according to the specified parameters
  * in the RCC_OscInitTypeDef structure.
  */
  RCC_OscInitStruct.OscillatorType = RCC_OSCILLATORTYPE_HSI|RCC_OSCILLATORTYPE_HSI14;
 8002a4a:	2312      	movs	r3, #18
 8002a4c:	9308      	str	r3, [sp, #32]
  RCC_OscInitStruct.HSIState = RCC_HSI_ON;
 8002a4e:	3b11      	subs	r3, #17
 8002a50:	930b      	str	r3, [sp, #44]	; 0x2c
  RCC_OscInitStruct.HSI14State = RCC_HSI14_ON;
 8002a52:	930d      	str	r3, [sp, #52]	; 0x34
  RCC_OscInitStruct.HSICalibrationValue = RCC_HSICALIBRATION_DEFAULT;
  RCC_OscInitStruct.HSI14CalibrationValue = 16;
  RCC_OscInitStruct.PLL.PLLState = RCC_PLL_ON;
  RCC_OscInitStruct.PLL.PLLSource = RCC_PLLSOURCE_HSI;
 8002a54:	2380      	movs	r3, #128	; 0x80
 8002a56:	021b      	lsls	r3, r3, #8
  RCC_ClkInitTypeDef RCC_ClkInitStruct = {0};
 8002a58:	2410      	movs	r4, #16
  RCC_OscInitStruct.PLL.PLLSource = RCC_PLLSOURCE_HSI;
 8002a5a:	9311      	str	r3, [sp, #68]	; 0x44
  RCC_OscInitStruct.PLL.PLLMUL = RCC_PLL_MUL6;
 8002a5c:	2380      	movs	r3, #128	; 0x80
  RCC_OscInitStruct.HSICalibrationValue = RCC_HSICALIBRATION_DEFAULT;
 8002a5e:	940c      	str	r4, [sp, #48]	; 0x30
  RCC_OscInitStruct.HSI14CalibrationValue = 16;
 8002a60:	940e      	str	r4, [sp, #56]	; 0x38
  RCC_OscInitStruct.PLL.PLLMUL = RCC_PLL_MUL6;
 8002a62:	035b      	lsls	r3, r3, #13
  RCC_OscInitStruct.PLL.PLLState = RCC_PLL_ON;
 8002a64:	3c0e      	subs	r4, #14
  RCC_OscInitStruct.PLL.PREDIV = RCC_PREDIV_DIV1;
  if (HAL_RCC_OscConfig(&RCC_OscInitStruct) != HAL_OK)
 8002a66:	a808      	add	r0, sp, #32
  RCC_OscInitStruct.PLL.PLLState = RCC_PLL_ON;
 8002a68:	9410      	str	r4, [sp, #64]	; 0x40
  RCC_OscInitStruct.PLL.PLLMUL = RCC_PLL_MUL6;
 8002a6a:	9312      	str	r3, [sp, #72]	; 0x48
  if (HAL_RCC_OscConfig(&RCC_OscInitStruct) != HAL_OK)
 8002a6c:	f002 fdde 	bl	800562c <HAL_RCC_OscConfig>
 8002a70:	2800      	cmp	r0, #0
 8002a72:	d000      	beq.n	8002a76 <main+0x52>
  * @retval None
  */
void Error_Handler(void)
{
  /* User may add here some code to deal with this error */
  while(1)
 8002a74:	e7fe      	b.n	8002a74 <main+0x50>
  RCC_ClkInitStruct.ClockType = RCC_CLOCKTYPE_HCLK|RCC_CLOCKTYPE_SYSCLK
 8002a76:	2307      	movs	r3, #7
  RCC_ClkInitStruct.AHBCLKDivider = RCC_SYSCLK_DIV1;
 8002a78:	9002      	str	r0, [sp, #8]
  RCC_ClkInitStruct.APB1CLKDivider = RCC_HCLK_DIV1;
 8002a7a:	9003      	str	r0, [sp, #12]
  if (HAL_RCC_ClockConfig(&RCC_ClkInitStruct, FLASH_LATENCY_1) != HAL_OK)
 8002a7c:	2101      	movs	r1, #1
 8002a7e:	4668      	mov	r0, sp
  RCC_ClkInitStruct.ClockType = RCC_CLOCKTYPE_HCLK|RCC_CLOCKTYPE_SYSCLK
 8002a80:	9300      	str	r3, [sp, #0]
  RCC_ClkInitStruct.SYSCLKSource = RCC_SYSCLKSOURCE_PLLCLK;
 8002a82:	9401      	str	r4, [sp, #4]
  if (HAL_RCC_ClockConfig(&RCC_ClkInitStruct, FLASH_LATENCY_1) != HAL_OK)
 8002a84:	f003 f858 	bl	8005b38 <HAL_RCC_ClockConfig>
 8002a88:	2800      	cmp	r0, #0
 8002a8a:	d000      	beq.n	8002a8e <main+0x6a>
  while(1)
 8002a8c:	e7fe      	b.n	8002a8c <main+0x68>
  PeriphClkInit.PeriphClockSelection = RCC_PERIPHCLK_USART1|RCC_PERIPHCLK_I2C1;
 8002a8e:	2321      	movs	r3, #33	; 0x21
  PeriphClkInit.Usart1ClockSelection = RCC_USART1CLKSOURCE_PCLK1;
 8002a90:	9006      	str	r0, [sp, #24]
  PeriphClkInit.I2c1ClockSelection = RCC_I2C1CLKSOURCE_HSI;
 8002a92:	9007      	str	r0, [sp, #28]
  if (HAL_RCCEx_PeriphCLKConfig(&PeriphClkInit) != HAL_OK)
 8002a94:	a804      	add	r0, sp, #16
  PeriphClkInit.PeriphClockSelection = RCC_PERIPHCLK_USART1|RCC_PERIPHCLK_I2C1;
 8002a96:	9304      	str	r3, [sp, #16]
  if (HAL_RCCEx_PeriphCLKConfig(&PeriphClkInit) != HAL_OK)
 8002a98:	f003 f906 	bl	8005ca8 <HAL_RCCEx_PeriphCLKConfig>
 8002a9c:	2800      	cmp	r0, #0
 8002a9e:	d119      	bne.n	8002ad4 <main+0xb0>
  bsp_led_init();
 8002aa0:	f7ff fd5e 	bl	8002560 <bsp_led_init>
  bsp_beep_init();
 8002aa4:	f7ff fd32 	bl	800250c <bsp_beep_init>
  bsp_adc_init();
 8002aa8:	f7ff fcb8 	bl	800241c <bsp_adc_init>
  bsp_uart_init();
 8002aac:	f7ff fda0 	bl	80025f0 <bsp_uart_init>
  rt_kprintf("\r\nHello World! \r\n");
 8002ab0:	4809      	ldr	r0, [pc, #36]	; (8002ad8 <main+0xb4>)
 8002ab2:	f7ff ff65 	bl	8002980 <rt_kprintf>
  MX_FREERTOS_Init();
 8002ab6:	f7ff fc9f 	bl	80023f8 <MX_FREERTOS_Init>
  vTaskStartScheduler();
 8002aba:	f004 fcad 	bl	8007418 <vTaskStartScheduler>
	bsp_led1_toggle();
 8002abe:	f7ff fd79 	bl	80025b4 <bsp_led1_toggle>
	bsp_led2_toggle();
 8002ac2:	f7ff fd81 	bl	80025c8 <bsp_led2_toggle>
	bsp_led3_toggle();
 8002ac6:	f7ff fd89 	bl	80025dc <bsp_led3_toggle>
  	HAL_Delay(500);
 8002aca:	20fa      	movs	r0, #250	; 0xfa
 8002acc:	0040      	lsls	r0, r0, #1
 8002ace:	f002 fb3f 	bl	8005150 <HAL_Delay>
  while (1)
 8002ad2:	e7f4      	b.n	8002abe <main+0x9a>
  while(1)
 8002ad4:	e7fe      	b.n	8002ad4 <main+0xb0>
 8002ad6:	46c0      	nop			; (mov r8, r8)
 8002ad8:	08007f7c 	.word	0x08007f7c

08002adc <Error_Handler>:
 8002adc:	e7fe      	b.n	8002adc <Error_Handler>
 8002ade:	46c0      	nop			; (mov r8, r8)

08002ae0 <prvTaskExitError>:

/*-----------------------------------------------------------*/

static void prvTaskExitError( void )
{
    volatile uint32_t ulDummy = 0UL;
 8002ae0:	2300      	movs	r3, #0
{
 8002ae2:	b082      	sub	sp, #8
    volatile uint32_t ulDummy = 0UL;
 8002ae4:	9301      	str	r3, [sp, #4]
    /* A function that implements a task must not exit or attempt to return to
     * its caller as there is nothing to return to. If a task wants to exit it
     * should instead call vTaskDelete( NULL ). Artificially force an assert()
     * to be triggered if configASSERT() is defined, then stop here so
     * application writers can catch the error. */
    configASSERT( ulCriticalNesting == ~0UL );
 8002ae6:	4b06      	ldr	r3, [pc, #24]	; (8002b00 <prvTaskExitError+0x20>)
 8002ae8:	681b      	ldr	r3, [r3, #0]
 8002aea:	3301      	adds	r3, #1
 8002aec:	d001      	beq.n	8002af2 <prvTaskExitError+0x12>
 8002aee:	b672      	cpsid	i
 8002af0:	e7fe      	b.n	8002af0 <prvTaskExitError+0x10>
    portDISABLE_INTERRUPTS();
 8002af2:	b672      	cpsid	i

    while( ulDummy == 0 )
 8002af4:	9b01      	ldr	r3, [sp, #4]
 8002af6:	2b00      	cmp	r3, #0
 8002af8:	d0fc      	beq.n	8002af4 <prvTaskExitError+0x14>
         * warnings about code appearing after this function is called - making
         * ulDummy volatile makes the compiler think the function could return
         * and therefore not output an 'unreachable code' warning for code that
         * appears after it. */
    }
}
 8002afa:	b002      	add	sp, #8
 8002afc:	4770      	bx	lr
 8002afe:	46c0      	nop			; (mov r8, r8)
 8002b00:	20000000 	.word	0x20000000

08002b04 <vPortSetupTimerInterrupt>:
    portNVIC_SYSTICK_CTRL_REG = portNVIC_SYSTICK_CLK_BIT_CONFIG;
 8002b04:	2204      	movs	r2, #4
    portNVIC_SYSTICK_CURRENT_VALUE_REG = 0UL;
 8002b06:	2100      	movs	r1, #0
    portNVIC_SYSTICK_CTRL_REG = portNVIC_SYSTICK_CLK_BIT_CONFIG;
 8002b08:	4b04      	ldr	r3, [pc, #16]	; (8002b1c <vPortSetupTimerInterrupt+0x18>)
 8002b0a:	601a      	str	r2, [r3, #0]
    portNVIC_SYSTICK_CURRENT_VALUE_REG = 0UL;
 8002b0c:	4a04      	ldr	r2, [pc, #16]	; (8002b20 <vPortSetupTimerInterrupt+0x1c>)
 8002b0e:	6011      	str	r1, [r2, #0]
    portNVIC_SYSTICK_LOAD_REG = ( configSYSTICK_CLOCK_HZ / configTICK_RATE_HZ ) - 1UL;
 8002b10:	4a04      	ldr	r2, [pc, #16]	; (8002b24 <vPortSetupTimerInterrupt+0x20>)
 8002b12:	4905      	ldr	r1, [pc, #20]	; (8002b28 <vPortSetupTimerInterrupt+0x24>)
 8002b14:	6011      	str	r1, [r2, #0]
    portNVIC_SYSTICK_CTRL_REG = portNVIC_SYSTICK_CLK_BIT_CONFIG | portNVIC_SYSTICK_INT_BIT | portNVIC_SYSTICK_ENABLE_BIT;
 8002b16:	2207      	movs	r2, #7
 8002b18:	601a      	str	r2, [r3, #0]
}
 8002b1a:	4770      	bx	lr
 8002b1c:	e000e010 	.word	0xe000e010
 8002b20:	e000e018 	.word	0xe000e018
 8002b24:	e000e014 	.word	0xe000e014
 8002b28:	0000bb7f 	.word	0x0000bb7f

08002b2c <vPortYield>:
/*-----------------------------------------------------------*/

void vPortYield( void ) /* PRIVILEGED_FUNCTION */
{
    /* Set a PendSV to request a context switch. */
    portNVIC_INT_CTRL_REG = portNVIC_PENDSVSET_BIT;
 8002b2c:	2280      	movs	r2, #128	; 0x80
 8002b2e:	4b04      	ldr	r3, [pc, #16]	; (8002b40 <vPortYield+0x14>)
 8002b30:	0552      	lsls	r2, r2, #21
 8002b32:	601a      	str	r2, [r3, #0]

    /* Barriers are normally not required but do ensure the code is
     * completely within the specified behaviour for the architecture. */
    __asm volatile ( "dsb" ::: "memory" );
 8002b34:	f3bf 8f4f 	dsb	sy
    __asm volatile ( "isb" );
 8002b38:	f3bf 8f6f 	isb	sy
}
 8002b3c:	4770      	bx	lr
 8002b3e:	46c0      	nop			; (mov r8, r8)
 8002b40:	e000ed04 	.word	0xe000ed04

08002b44 <vPortEnterCritical>:

/*-----------------------------------------------------------*/

void vPortEnterCritical( void ) /* PRIVILEGED_FUNCTION */
{
    portDISABLE_INTERRUPTS();
 8002b44:	b672      	cpsid	i
    ulCriticalNesting++;
 8002b46:	4a04      	ldr	r2, [pc, #16]	; (8002b58 <vPortEnterCritical+0x14>)
 8002b48:	6813      	ldr	r3, [r2, #0]
 8002b4a:	3301      	adds	r3, #1
 8002b4c:	6013      	str	r3, [r2, #0]

    /* Barriers are normally not required but do ensure the code is
     * completely within the specified behaviour for the architecture. */
    __asm volatile ( "dsb" ::: "memory" );
 8002b4e:	f3bf 8f4f 	dsb	sy
    __asm volatile ( "isb" );
 8002b52:	f3bf 8f6f 	isb	sy
}
 8002b56:	4770      	bx	lr
 8002b58:	20000000 	.word	0x20000000

08002b5c <vPortExitCritical>:

/*-----------------------------------------------------------*/

void vPortExitCritical( void ) /* PRIVILEGED_FUNCTION */
{
    configASSERT( ulCriticalNesting );
 8002b5c:	4b06      	ldr	r3, [pc, #24]	; (8002b78 <vPortExitCritical+0x1c>)
 8002b5e:	681a      	ldr	r2, [r3, #0]
 8002b60:	2a00      	cmp	r2, #0
 8002b62:	d101      	bne.n	8002b68 <vPortExitCritical+0xc>
 8002b64:	b672      	cpsid	i
 8002b66:	e7fe      	b.n	8002b66 <vPortExitCritical+0xa>
    ulCriticalNesting--;
 8002b68:	681a      	ldr	r2, [r3, #0]
 8002b6a:	3a01      	subs	r2, #1
 8002b6c:	601a      	str	r2, [r3, #0]

    if( ulCriticalNesting == 0 )
 8002b6e:	681b      	ldr	r3, [r3, #0]
 8002b70:	2b00      	cmp	r3, #0
 8002b72:	d100      	bne.n	8002b76 <vPortExitCritical+0x1a>
    {
        portENABLE_INTERRUPTS();
 8002b74:	b662      	cpsie	i
    }
}
 8002b76:	4770      	bx	lr
 8002b78:	20000000 	.word	0x20000000

08002b7c <SysTick_Handler>:

/*-----------------------------------------------------------*/

void SysTick_Handler( void ) /* PRIVILEGED_FUNCTION */
{
 8002b7c:	b510      	push	{r4, lr}
    uint32_t ulPreviousMask;

    ulPreviousMask = portSET_INTERRUPT_MASK_FROM_ISR();
 8002b7e:	f000 f8cf 	bl	8002d20 <ulSetInterruptMask>
 8002b82:	0004      	movs	r4, r0

    traceISR_ENTER();
    {
        /* Increment the RTOS tick. */
        if( xTaskIncrementTick() != pdFALSE )
 8002b84:	f004 fcb0 	bl	80074e8 <xTaskIncrementTick>
 8002b88:	2800      	cmp	r0, #0
 8002b8a:	d003      	beq.n	8002b94 <SysTick_Handler+0x18>
        {
            traceISR_EXIT_TO_SCHEDULER();
            /* Pend a context switch. */
            portNVIC_INT_CTRL_REG = portNVIC_PENDSVSET_BIT;
 8002b8c:	2280      	movs	r2, #128	; 0x80
 8002b8e:	4b03      	ldr	r3, [pc, #12]	; (8002b9c <SysTick_Handler+0x20>)
 8002b90:	0552      	lsls	r2, r2, #21
 8002b92:	601a      	str	r2, [r3, #0]
        {
            traceISR_EXIT();
        }
    }

    portCLEAR_INTERRUPT_MASK_FROM_ISR( ulPreviousMask );
 8002b94:	0020      	movs	r0, r4
 8002b96:	f000 f8c7 	bl	8002d28 <vClearInterruptMask>
}
 8002b9a:	bd10      	pop	{r4, pc}
 8002b9c:	e000ed04 	.word	0xe000ed04

08002ba0 <vPortSVCHandler_C>:

/*-----------------------------------------------------------*/

void vPortSVCHandler_C( uint32_t * pulCallerStackAddress ) /* PRIVILEGED_FUNCTION portDONT_DISCARD */
{
 8002ba0:	b510      	push	{r4, lr}
    uint8_t ucSVCNumber;

    /* Register are stored on the stack in the following order - R0, R1, R2, R3,
     * R12, LR, PC, xPSR. */
    ulPC = pulCallerStackAddress[ portOFFSET_TO_PC ];
    ucSVCNumber = ( ( uint8_t * ) ulPC )[ -2 ];
 8002ba2:	6983      	ldr	r3, [r0, #24]
 8002ba4:	3b02      	subs	r3, #2

    switch( ucSVCNumber )
 8002ba6:	781b      	ldrb	r3, [r3, #0]
 8002ba8:	2b64      	cmp	r3, #100	; 0x64
 8002baa:	d001      	beq.n	8002bb0 <vPortSVCHandler_C+0x10>

    #endif /* configENABLE_MPU == 1 */

        default:
            /* Incorrect SVC call. */
            configASSERT( pdFALSE );
 8002bac:	b672      	cpsid	i
 8002bae:	e7fe      	b.n	8002bae <vPortSVCHandler_C+0xe>
            vRestoreContextOfFirstTask();
 8002bb0:	f000 f896 	bl	8002ce0 <vRestoreContextOfFirstTask>
    }
}
 8002bb4:	bd10      	pop	{r4, pc}
 8002bb6:	46c0      	nop			; (mov r8, r8)

08002bb8 <pxPortInitialiseStack>:
#else /* configENABLE_MPU */

    StackType_t * pxPortInitialiseStack( StackType_t * pxTopOfStack,
                                         TaskFunction_t pxCode,
                                         void * pvParameters ) /* PRIVILEGED_FUNCTION */
    {
 8002bb8:	b510      	push	{r4, lr}
            *pxTopOfStack = portINITIAL_EXC_RETURN;
        }
        #else /* portPRELOAD_REGISTERS */
        {
            pxTopOfStack--;                                          /* Offset added to account for the way the MCU uses the stack on entry/exit of interrupts. */
            *pxTopOfStack = portINITIAL_XPSR;                        /* xPSR. */
 8002bba:	2480      	movs	r4, #128	; 0x80
 8002bbc:	1f03      	subs	r3, r0, #4
 8002bbe:	0464      	lsls	r4, r4, #17
 8002bc0:	601c      	str	r4, [r3, #0]
            pxTopOfStack--;
            *pxTopOfStack = ( StackType_t ) pxCode;                  /* PC. */
 8002bc2:	3b04      	subs	r3, #4
 8002bc4:	6019      	str	r1, [r3, #0]
            pxTopOfStack--;
            *pxTopOfStack = ( StackType_t ) portTASK_RETURN_ADDRESS; /* LR. */
 8002bc6:	4917      	ldr	r1, [pc, #92]	; (8002c24 <pxPortInitialiseStack+0x6c>)
 8002bc8:	3b04      	subs	r3, #4
 8002bca:	6019      	str	r1, [r3, #0]
            pxTopOfStack--;
            *pxTopOfStack = ( StackType_t ) 0x12121212UL;            /* R12. */
 8002bcc:	4916      	ldr	r1, [pc, #88]	; (8002c28 <pxPortInitialiseStack+0x70>)
 8002bce:	3b04      	subs	r3, #4
 8002bd0:	6019      	str	r1, [r3, #0]
            pxTopOfStack--;
            *pxTopOfStack = ( StackType_t ) 0x03030303UL;            /* R3. */
 8002bd2:	4916      	ldr	r1, [pc, #88]	; (8002c2c <pxPortInitialiseStack+0x74>)
 8002bd4:	3b04      	subs	r3, #4
 8002bd6:	6019      	str	r1, [r3, #0]
            pxTopOfStack--;
            *pxTopOfStack = ( StackType_t ) 0x02020202UL;            /* R2. */
 8002bd8:	4915      	ldr	r1, [pc, #84]	; (8002c30 <pxPortInitialiseStack+0x78>)
 8002bda:	3b04      	subs	r3, #4
 8002bdc:	6019      	str	r1, [r3, #0]
            pxTopOfStack--;
            *pxTopOfStack = ( StackType_t ) 0x01010101UL;            /* R1. */
 8002bde:	4915      	ldr	r1, [pc, #84]	; (8002c34 <pxPortInitialiseStack+0x7c>)
 8002be0:	3b04      	subs	r3, #4
 8002be2:	6019      	str	r1, [r3, #0]
            pxTopOfStack--;
            *pxTopOfStack = ( StackType_t ) pvParameters;            /* R0. */
 8002be4:	3b04      	subs	r3, #4
 8002be6:	601a      	str	r2, [r3, #0]
            pxTopOfStack--;
            *pxTopOfStack = ( StackType_t ) 0x11111111UL;            /* R11. */
 8002be8:	4a13      	ldr	r2, [pc, #76]	; (8002c38 <pxPortInitialiseStack+0x80>)
 8002bea:	3b04      	subs	r3, #4
 8002bec:	601a      	str	r2, [r3, #0]
            pxTopOfStack--;
            *pxTopOfStack = ( StackType_t ) 0x10101010UL;            /* R10. */
 8002bee:	4a13      	ldr	r2, [pc, #76]	; (8002c3c <pxPortInitialiseStack+0x84>)
 8002bf0:	3b04      	subs	r3, #4
 8002bf2:	601a      	str	r2, [r3, #0]
            pxTopOfStack--;
            *pxTopOfStack = ( StackType_t ) 0x09090909UL;            /* R09. */
 8002bf4:	4a12      	ldr	r2, [pc, #72]	; (8002c40 <pxPortInitialiseStack+0x88>)
 8002bf6:	3b04      	subs	r3, #4
 8002bf8:	601a      	str	r2, [r3, #0]
            pxTopOfStack--;
            *pxTopOfStack = ( StackType_t ) 0x08080808UL;            /* R08. */
 8002bfa:	4a12      	ldr	r2, [pc, #72]	; (8002c44 <pxPortInitialiseStack+0x8c>)
 8002bfc:	3b04      	subs	r3, #4
 8002bfe:	601a      	str	r2, [r3, #0]
            pxTopOfStack--;
            *pxTopOfStack = ( StackType_t ) 0x07070707UL;            /* R07. */
 8002c00:	4a11      	ldr	r2, [pc, #68]	; (8002c48 <pxPortInitialiseStack+0x90>)
 8002c02:	3b04      	subs	r3, #4
 8002c04:	601a      	str	r2, [r3, #0]
            pxTopOfStack--;
            *pxTopOfStack = ( StackType_t ) 0x06060606UL;            /* R06. */
 8002c06:	4a11      	ldr	r2, [pc, #68]	; (8002c4c <pxPortInitialiseStack+0x94>)
 8002c08:	3b04      	subs	r3, #4
 8002c0a:	601a      	str	r2, [r3, #0]
            pxTopOfStack--;
            *pxTopOfStack = ( StackType_t ) 0x05050505UL;            /* R05. */
 8002c0c:	4a10      	ldr	r2, [pc, #64]	; (8002c50 <pxPortInitialiseStack+0x98>)
 8002c0e:	3b04      	subs	r3, #4
 8002c10:	601a      	str	r2, [r3, #0]
            pxTopOfStack--;
            *pxTopOfStack = ( StackType_t ) 0x04040404UL;            /* R04. */
 8002c12:	4a10      	ldr	r2, [pc, #64]	; (8002c54 <pxPortInitialiseStack+0x9c>)
 8002c14:	3b04      	subs	r3, #4
 8002c16:	601a      	str	r2, [r3, #0]
            pxTopOfStack--;
            *pxTopOfStack = portINITIAL_EXC_RETURN;                  /* EXC_RETURN. */
 8002c18:	2303      	movs	r3, #3
 8002c1a:	3844      	subs	r0, #68	; 0x44
 8002c1c:	425b      	negs	r3, r3
 8002c1e:	6003      	str	r3, [r0, #0]
        }
        #endif /* portPRELOAD_REGISTERS */

        return pxTopOfStack;
    }
 8002c20:	bd10      	pop	{r4, pc}
 8002c22:	46c0      	nop			; (mov r8, r8)
 8002c24:	08002ae1 	.word	0x08002ae1
 8002c28:	12121212 	.word	0x12121212
 8002c2c:	03030303 	.word	0x03030303
 8002c30:	02020202 	.word	0x02020202
 8002c34:	01010101 	.word	0x01010101
 8002c38:	11111111 	.word	0x11111111
 8002c3c:	10101010 	.word	0x10101010
 8002c40:	09090909 	.word	0x09090909
 8002c44:	08080808 	.word	0x08080808
 8002c48:	07070707 	.word	0x07070707
 8002c4c:	06060606 	.word	0x06060606
 8002c50:	05050505 	.word	0x05050505
 8002c54:	04040404 	.word	0x04040404

08002c58 <xPortStartScheduler>:
     * configCHECK_HANDLER_INSTALLATION to 0 in their FreeRTOSConfig.h. Direct
     * routing, which is validated here when configCHECK_HANDLER_INSTALLATION
     * is 1, should be preferred when possible. */
    #if ( configCHECK_HANDLER_INSTALLATION == 1 )
    {
        const portISR_t * const pxVectorTable = portSCB_VTOR_REG;
 8002c58:	4b19      	ldr	r3, [pc, #100]	; (8002cc0 <xPortStartScheduler+0x68>)
{
 8002c5a:	b530      	push	{r4, r5, lr}
        const portISR_t * const pxVectorTable = portSCB_VTOR_REG;
 8002c5c:	681b      	ldr	r3, [r3, #0]
         * https://www.FreeRTOS.org/FAQHelp.html.
         *
         * Systems with a configurable address for the interrupt vector table
         * can also encounter assertion failures or even system faults here if
         * VTOR is not set correctly to point to the application's vector table. */
        configASSERT( pxVectorTable[ portVECTOR_INDEX_SVC ] == SVC_Handler );
 8002c5e:	4a19      	ldr	r2, [pc, #100]	; (8002cc4 <xPortStartScheduler+0x6c>)
 8002c60:	6ad9      	ldr	r1, [r3, #44]	; 0x2c
{
 8002c62:	b083      	sub	sp, #12
        configASSERT( pxVectorTable[ portVECTOR_INDEX_SVC ] == SVC_Handler );
 8002c64:	4291      	cmp	r1, r2
 8002c66:	d001      	beq.n	8002c6c <xPortStartScheduler+0x14>
 8002c68:	b672      	cpsid	i
 8002c6a:	e7fe      	b.n	8002c6a <xPortStartScheduler+0x12>
        configASSERT( pxVectorTable[ portVECTOR_INDEX_PENDSV ] == PendSV_Handler );
 8002c6c:	4a16      	ldr	r2, [pc, #88]	; (8002cc8 <xPortStartScheduler+0x70>)
 8002c6e:	6b9b      	ldr	r3, [r3, #56]	; 0x38
 8002c70:	4293      	cmp	r3, r2
 8002c72:	d001      	beq.n	8002c78 <xPortStartScheduler+0x20>
 8002c74:	b672      	cpsid	i
 8002c76:	e7fe      	b.n	8002c76 <xPortStartScheduler+0x1e>
    }
    #endif /* configCHECK_HANDLER_INSTALLATION */

    /* Make PendSV and SysTick the lowest priority interrupts, and make SVCall
     * the highest priority. */
    portNVIC_SHPR3_REG |= portNVIC_PENDSV_PRI;
 8002c78:	22ff      	movs	r2, #255	; 0xff
 8002c7a:	4b14      	ldr	r3, [pc, #80]	; (8002ccc <xPortStartScheduler+0x74>)
 8002c7c:	0412      	lsls	r2, r2, #16
 8002c7e:	6819      	ldr	r1, [r3, #0]
    portNVIC_SHPR3_REG |= portNVIC_SYSTICK_PRI;
    portNVIC_SHPR2_REG = 0;
 8002c80:	2400      	movs	r4, #0
    portNVIC_SHPR3_REG |= portNVIC_PENDSV_PRI;
 8002c82:	430a      	orrs	r2, r1
 8002c84:	601a      	str	r2, [r3, #0]
    portNVIC_SHPR3_REG |= portNVIC_SYSTICK_PRI;
 8002c86:	22ff      	movs	r2, #255	; 0xff
 8002c88:	6819      	ldr	r1, [r3, #0]
 8002c8a:	0612      	lsls	r2, r2, #24
 8002c8c:	430a      	orrs	r2, r1
 8002c8e:	601a      	str	r2, [r3, #0]
    portNVIC_SHPR2_REG = 0;
 8002c90:	4b0f      	ldr	r3, [pc, #60]	; (8002cd0 <xPortStartScheduler+0x78>)
 8002c92:	601c      	str	r4, [r3, #0]
    }
    #endif /* configENABLE_MPU */

    /* Start the timer that generates the tick ISR. Interrupts are disabled
     * here already. */
    vPortSetupTimerInterrupt();
 8002c94:	f7ff ff36 	bl	8002b04 <vPortSetupTimerInterrupt>

    /* Initialize the critical nesting count ready for the first task. */
    ulCriticalNesting = 0;
 8002c98:	4d0e      	ldr	r5, [pc, #56]	; (8002cd4 <xPortStartScheduler+0x7c>)
 8002c9a:	602c      	str	r4, [r5, #0]
        xSchedulerRunning = pdTRUE;
    }
    #endif

    /* Start the first task. */
